
FFT.elf:     file format elf32-avr

Sections:
Idx Name          Size      VMA       LMA       File off  Algn
  0 .data         00000018  00800100  00002e3c  00002ed0  2**0
                  CONTENTS, ALLOC, LOAD, DATA
  1 .text         00002e3c  00000000  00000000  00000094  2**1
                  CONTENTS, ALLOC, LOAD, READONLY, CODE
  2 .bss          00000e1d  00800118  00800118  00002ee8  2**0
                  ALLOC
  3 .comment      0000005c  00000000  00000000  00002ee8  2**0
                  CONTENTS, READONLY
  4 .note.gnu.avr.deviceinfo 00000040  00000000  00000000  00002f44  2**2
                  CONTENTS, READONLY
  5 .debug_aranges 000000a8  00000000  00000000  00002f88  2**3
                  CONTENTS, READONLY, DEBUGGING
  6 .debug_info   0000159d  00000000  00000000  00003030  2**0
                  CONTENTS, READONLY, DEBUGGING
  7 .debug_abbrev 00000a1c  00000000  00000000  000045cd  2**0
                  CONTENTS, READONLY, DEBUGGING
  8 .debug_line   00000e86  00000000  00000000  00004fe9  2**0
                  CONTENTS, READONLY, DEBUGGING
  9 .debug_frame  00000164  00000000  00000000  00005e70  2**2
                  CONTENTS, READONLY, DEBUGGING
 10 .debug_str    0000054b  00000000  00000000  00005fd4  2**0
                  CONTENTS, READONLY, DEBUGGING
 11 .debug_loc    00000bab  00000000  00000000  0000651f  2**0
                  CONTENTS, READONLY, DEBUGGING
 12 .debug_ranges 00000068  00000000  00000000  000070ca  2**0
                  CONTENTS, READONLY, DEBUGGING

Disassembly of section .text:

00000000 <__vectors>:
       0:	07 c1       	rjmp	.+526    	; 0x210 <__ctors_end>
       2:	00 00       	nop
       4:	0c 94 92 08 	jmp	0x1124	; 0x1124 <__vector_1>
       8:	21 c1       	rjmp	.+578    	; 0x24c <__bad_interrupt>
       a:	00 00       	nop
       c:	1f c1       	rjmp	.+574    	; 0x24c <__bad_interrupt>
       e:	00 00       	nop
      10:	1d c1       	rjmp	.+570    	; 0x24c <__bad_interrupt>
      12:	00 00       	nop
      14:	1b c1       	rjmp	.+566    	; 0x24c <__bad_interrupt>
      16:	00 00       	nop
      18:	19 c1       	rjmp	.+562    	; 0x24c <__bad_interrupt>
      1a:	00 00       	nop
      1c:	17 c1       	rjmp	.+558    	; 0x24c <__bad_interrupt>
      1e:	00 00       	nop
      20:	15 c1       	rjmp	.+554    	; 0x24c <__bad_interrupt>
      22:	00 00       	nop
      24:	13 c1       	rjmp	.+550    	; 0x24c <__bad_interrupt>
      26:	00 00       	nop
      28:	11 c1       	rjmp	.+546    	; 0x24c <__bad_interrupt>
      2a:	00 00       	nop
      2c:	0f c1       	rjmp	.+542    	; 0x24c <__bad_interrupt>
      2e:	00 00       	nop
      30:	0d c1       	rjmp	.+538    	; 0x24c <__bad_interrupt>
      32:	00 00       	nop
      34:	0b c1       	rjmp	.+534    	; 0x24c <__bad_interrupt>
      36:	00 00       	nop
      38:	09 c1       	rjmp	.+530    	; 0x24c <__bad_interrupt>
      3a:	00 00       	nop
      3c:	07 c1       	rjmp	.+526    	; 0x24c <__bad_interrupt>
      3e:	00 00       	nop
      40:	0c 94 69 08 	jmp	0x10d2	; 0x10d2 <__vector_16>
      44:	03 c1       	rjmp	.+518    	; 0x24c <__bad_interrupt>
      46:	00 00       	nop
      48:	01 c1       	rjmp	.+514    	; 0x24c <__bad_interrupt>
      4a:	00 00       	nop
      4c:	ff c0       	rjmp	.+510    	; 0x24c <__bad_interrupt>
      4e:	00 00       	nop
      50:	fd c0       	rjmp	.+506    	; 0x24c <__bad_interrupt>
      52:	00 00       	nop
      54:	0c 94 a9 08 	jmp	0x1152	; 0x1152 <__vector_21>
      58:	f9 c0       	rjmp	.+498    	; 0x24c <__bad_interrupt>
      5a:	00 00       	nop
      5c:	f7 c0       	rjmp	.+494    	; 0x24c <__bad_interrupt>
      5e:	00 00       	nop
      60:	f5 c0       	rjmp	.+490    	; 0x24c <__bad_interrupt>
      62:	00 00       	nop
      64:	f3 c0       	rjmp	.+486    	; 0x24c <__bad_interrupt>
      66:	00 00       	nop
      68:	f1 c0       	rjmp	.+482    	; 0x24c <__bad_interrupt>
      6a:	00 00       	nop
      6c:	ef c0       	rjmp	.+478    	; 0x24c <__bad_interrupt>
      6e:	00 00       	nop
      70:	ed c0       	rjmp	.+474    	; 0x24c <__bad_interrupt>
      72:	00 00       	nop
      74:	eb c0       	rjmp	.+470    	; 0x24c <__bad_interrupt>
      76:	00 00       	nop
      78:	e9 c0       	rjmp	.+466    	; 0x24c <__bad_interrupt>
      7a:	00 00       	nop
      7c:	e7 c0       	rjmp	.+462    	; 0x24c <__bad_interrupt>
      7e:	00 00       	nop
      80:	e5 c0       	rjmp	.+458    	; 0x24c <__bad_interrupt>
      82:	00 00       	nop
      84:	e3 c0       	rjmp	.+454    	; 0x24c <__bad_interrupt>
      86:	00 00       	nop
      88:	e1 c0       	rjmp	.+450    	; 0x24c <__bad_interrupt>
      8a:	00 00       	nop
      8c:	07 63       	ori	r16, 0x37	; 55
      8e:	42 36       	cpi	r20, 0x62	; 98
      90:	b7 9b       	sbis	0x16, 7	; 22
      92:	d8 a7       	std	Y+40, r29	; 0x28
      94:	1a 39       	cpi	r17, 0x9A	; 154
      96:	68 56       	subi	r22, 0x68	; 104
      98:	18 ae       	std	Y+56, r1	; 0x38
      9a:	ba ab       	std	Y+50, r27	; 0x32
      9c:	55 8c       	ldd	r5, Z+29	; 0x1d
      9e:	1d 3c       	cpi	r17, 0xCD	; 205
      a0:	b7 cc       	rjmp	.-1682   	; 0xfffffa10 <__eeprom_end+0xff7efa10>
      a2:	57 63       	ori	r21, 0x37	; 55
      a4:	bd 6d       	ori	r27, 0xDD	; 221
      a6:	ed fd       	.word	0xfded	; ????
      a8:	75 3e       	cpi	r23, 0xE5	; 229
      aa:	f6 17       	cp	r31, r22
      ac:	72 31       	cpi	r23, 0x12	; 18
      ae:	bf 00       	.word	0x00bf	; ????
      b0:	00 00       	nop
      b2:	80 3f       	cpi	r24, 0xF0	; 240
      b4:	08 00       	.word	0x0008	; ????
      b6:	00 00       	nop
      b8:	be 92       	st	-X, r11
      ba:	24 49       	sbci	r18, 0x94	; 148
      bc:	12 3e       	cpi	r17, 0xE2	; 226
      be:	ab aa       	std	Y+51, r10	; 0x33
      c0:	aa 2a       	or	r10, r26
      c2:	be cd       	rjmp	.-1156   	; 0xfffffc40 <__eeprom_end+0xff7efc40>
      c4:	cc cc       	rjmp	.-1640   	; 0xfffffa5e <__eeprom_end+0xff7efa5e>
      c6:	4c 3e       	cpi	r20, 0xEC	; 236
      c8:	00 00       	nop
      ca:	00 80       	ld	r0, Z
      cc:	be ab       	std	Y+54, r27	; 0x36
      ce:	aa aa       	std	Y+50, r10	; 0x32
      d0:	aa 3e       	cpi	r26, 0xEA	; 234
      d2:	00 00       	nop
      d4:	00 00       	nop
      d6:	bf 00       	.word	0x00bf	; ????
      d8:	00 00       	nop
      da:	80 3f       	cpi	r24, 0xF0	; 240
      dc:	00 00       	nop
      de:	00 00       	nop
      e0:	00 08       	sbc	r0, r0
      e2:	41 78       	andi	r20, 0x81	; 129
      e4:	d3 bb       	out	0x13, r29	; 19
      e6:	43 87       	std	Z+11, r20	; 0x0b
      e8:	d1 13       	cpse	r29, r17
      ea:	3d 19       	sub	r19, r13
      ec:	0e 3c       	cpi	r16, 0xCE	; 206
      ee:	c3 bd       	out	0x23, r28	; 35
      f0:	42 82       	std	Z+2, r4	; 0x02
      f2:	ad 2b       	or	r26, r29
      f4:	3e 68       	ori	r19, 0x8E	; 142
      f6:	ec 82       	std	Y+4, r14	; 0x04
      f8:	76 be       	out	0x36, r7	; 54
      fa:	d9 8f       	std	Y+25, r29	; 0x19
      fc:	e1 a9       	ldd	r30, Z+49	; 0x31
      fe:	3e 4c       	sbci	r19, 0xCE	; 206
     100:	80 ef       	ldi	r24, 0xF0	; 240
     102:	ff be       	out	0x3f, r15	; 63
     104:	01 c4       	rjmp	.+2050   	; 0x908 <tbl_cos_sin+0x2ba>
     106:	ff 7f       	andi	r31, 0xFF	; 255
     108:	3f 00       	.word	0x003f	; ????
     10a:	00 00       	nop
	...

0000010e <__trampolines_end>:
     10e:	6e 61       	ori	r22, 0x1E	; 30
     110:	6e 00       	.word	0x006e	; ????

00000112 <__c.2332>:
     112:	69 6e 66 00 00 40 7a 10 f3 5a 00 a0 72 4e 18 09     inf..@z..Z..rN..
     122:	00 10 a5 d4 e8 00 00 e8 76 48 17 00 00 e4 0b 54     ........vH.....T
     132:	02 00 00 ca 9a 3b 00 00 00 e1 f5 05 00 00 80 96     .....;..........
     142:	98 00 00 00 40 42 0f 00 00 00 a0 86 01 00 00 00     ....@B..........
     152:	10 27 00 00 00 00 e8 03 00 00 00 00 64 00 00 00     .'..........d...
     162:	00 00 0a 00 00 00 00 00 01 00 00 00 00 00 2c 76     ..............,v
     172:	d8 88 dc 67 4f 08 23 df c1 df ae 59 e1 b1 b7 96     ...gO.#....Y....
     182:	e5 e3 e4 53 c6 3a e6 51 99 76 96 e8 e6 c2 84 26     ...S.:.Q.v.....&
     192:	eb 89 8c 9b 62 ed 40 7c 6f fc ef bc 9c 9f 40 f2     ....b.@|o.....@.
     1a2:	ba a5 6f a5 f4 90 05 5a 2a f7 5c 93 6b 6c f9 67     ..o....Z*.\.kl.g
     1b2:	6d c1 1b fc e0 e4 0d 47 fe f5 20 e6 b5 00 d0 ed     m......G.. .....
     1c2:	90 2e 03 00 94 35 77 05 00 80 84 1e 08 00 00 20     .....5w........ 
     1d2:	4e 0a 00 00 00 c8 0c 33 33 33 33 0f 98 6e 12 83     N......3333..n..
     1e2:	11 41 ef 8d 21 14 89 3b e6 55 16 cf fe e6 db 18     .A..!..;.U......
     1f2:	d1 84 4b 38 1b f7 7c 1d 90 1d a4 bb e4 24 20 32     ..K8..|......$ 2
     202:	84 72 5e 22 81 00 c9 f1 24 ec a1 e5 3d 27           .r^"....$...='

00000210 <__ctors_end>:
     210:	11 24       	eor	r1, r1
     212:	1f be       	out	0x3f, r1	; 63
     214:	cf ef       	ldi	r28, 0xFF	; 255
     216:	d0 e1       	ldi	r29, 0x10	; 16
     218:	de bf       	out	0x3e, r29	; 62
     21a:	cd bf       	out	0x3d, r28	; 61

0000021c <__do_copy_data>:
     21c:	11 e0       	ldi	r17, 0x01	; 1
     21e:	a0 e0       	ldi	r26, 0x00	; 0
     220:	b1 e0       	ldi	r27, 0x01	; 1
     222:	ec e3       	ldi	r30, 0x3C	; 60
     224:	fe e2       	ldi	r31, 0x2E	; 46
     226:	00 e0       	ldi	r16, 0x00	; 0
     228:	0b bf       	out	0x3b, r16	; 59
     22a:	02 c0       	rjmp	.+4      	; 0x230 <__do_copy_data+0x14>
     22c:	07 90       	elpm	r0, Z+
     22e:	0d 92       	st	X+, r0
     230:	a8 31       	cpi	r26, 0x18	; 24
     232:	b1 07       	cpc	r27, r17
     234:	d9 f7       	brne	.-10     	; 0x22c <__do_copy_data+0x10>

00000236 <__do_clear_bss>:
     236:	2f e0       	ldi	r18, 0x0F	; 15
     238:	a8 e1       	ldi	r26, 0x18	; 24
     23a:	b1 e0       	ldi	r27, 0x01	; 1
     23c:	01 c0       	rjmp	.+2      	; 0x240 <.do_clear_bss_start>

0000023e <.do_clear_bss_loop>:
     23e:	1d 92       	st	X+, r1

00000240 <.do_clear_bss_start>:
     240:	a5 33       	cpi	r26, 0x35	; 53
     242:	b2 07       	cpc	r27, r18
     244:	e1 f7       	brne	.-8      	; 0x23e <.do_clear_bss_loop>
     246:	ae d7       	rcall	.+3932   	; 0x11a4 <main>
     248:	0c 94 1c 17 	jmp	0x2e38	; 0x2e38 <_exit>

0000024c <__bad_interrupt>:
     24c:	d9 ce       	rjmp	.-590    	; 0x0 <__vectors>

0000024e <tbl_window>:
     24e:	3d 0a       	sbc	r3, r29
     250:	3e 0a       	sbc	r3, r30
     252:	41 0a       	sbc	r4, r17
     254:	47 0a       	sbc	r4, r23
     256:	4f 0a       	sbc	r4, r31
     258:	59 0a       	sbc	r5, r25
     25a:	66 0a       	sbc	r6, r22
     25c:	74 0a       	sbc	r7, r20
     25e:	85 0a       	sbc	r8, r21
     260:	99 0a       	sbc	r9, r25
     262:	ae 0a       	sbc	r10, r30
     264:	c6 0a       	sbc	r12, r22
     266:	e0 0a       	sbc	r14, r16
     268:	fc 0a       	sbc	r15, r28
     26a:	1b 0b       	sbc	r17, r27
     26c:	3c 0b       	sbc	r19, r28
     26e:	5e 0b       	sbc	r21, r30
     270:	84 0b       	sbc	r24, r20
     272:	ab 0b       	sbc	r26, r27
     274:	d5 0b       	sbc	r29, r21
     276:	01 0c       	add	r0, r1
     278:	2f 0c       	add	r2, r15
     27a:	5f 0c       	add	r5, r15
     27c:	91 0c       	add	r9, r1
     27e:	c6 0c       	add	r12, r6
     280:	fd 0c       	add	r15, r13
     282:	36 0d       	add	r19, r6
     284:	71 0d       	add	r23, r1
     286:	ae 0d       	add	r26, r14
     288:	ed 0d       	add	r30, r13
     28a:	2f 0e       	add	r2, r31
     28c:	72 0e       	add	r7, r18
     28e:	b8 0e       	add	r11, r24
     290:	00 0f       	add	r16, r16
     292:	4a 0f       	add	r20, r26
     294:	96 0f       	add	r25, r22
     296:	e4 0f       	add	r30, r20
     298:	34 10       	cpse	r3, r4
     29a:	86 10       	cpse	r8, r6
     29c:	da 10       	cpse	r13, r10
     29e:	31 11       	cpse	r19, r1
     2a0:	89 11       	cpse	r24, r9
     2a2:	e3 11       	cpse	r30, r3
     2a4:	3f 12       	cpse	r3, r31
     2a6:	9d 12       	cpse	r9, r29
     2a8:	fd 12       	cpse	r15, r29
     2aa:	5f 13       	cpse	r21, r31
     2ac:	c3 13       	cpse	r28, r19
     2ae:	29 14       	cp	r2, r9
     2b0:	91 14       	cp	r9, r1
     2b2:	fa 14       	cp	r15, r10
     2b4:	66 15       	cp	r22, r6
     2b6:	d3 15       	cp	r29, r3
     2b8:	42 16       	cp	r4, r18
     2ba:	b3 16       	cp	r11, r19
     2bc:	26 17       	cp	r18, r22
     2be:	9a 17       	cp	r25, r26
     2c0:	10 18       	sub	r1, r0
     2c2:	88 18       	sub	r8, r8
     2c4:	02 19       	sub	r16, r2
     2c6:	7d 19       	sub	r23, r13
     2c8:	fb 19       	sub	r31, r11
     2ca:	79 1a       	sub	r7, r25
     2cc:	fa 1a       	sub	r15, r26
     2ce:	7c 1b       	sub	r23, r28
     2d0:	ff 1b       	sub	r31, r31
     2d2:	84 1c       	adc	r8, r4
     2d4:	0b 1d       	adc	r16, r11
     2d6:	93 1d       	adc	r25, r3
     2d8:	1d 1e       	adc	r1, r29
     2da:	a9 1e       	adc	r10, r25
     2dc:	35 1f       	adc	r19, r21
     2de:	c4 1f       	adc	r28, r20
     2e0:	53 20       	and	r5, r3
     2e2:	e4 20       	and	r14, r4
     2e4:	77 21       	and	r23, r7
     2e6:	0b 22       	and	r0, r27
     2e8:	a0 22       	and	r10, r16
     2ea:	37 23       	and	r19, r23
     2ec:	ce 23       	and	r28, r30
     2ee:	68 24       	eor	r6, r8
     2f0:	02 25       	eor	r16, r2
     2f2:	9e 25       	eor	r25, r14
     2f4:	3b 26       	eor	r3, r27
     2f6:	d9 26       	eor	r13, r25
     2f8:	78 27       	eor	r23, r24
     2fa:	18 28       	or	r1, r8
     2fc:	ba 28       	or	r11, r10
     2fe:	5c 29       	or	r21, r12
     300:	00 2a       	or	r0, r16
     302:	a5 2a       	or	r10, r21
     304:	4a 2b       	or	r20, r26
     306:	f1 2b       	or	r31, r17
     308:	99 2c       	mov	r9, r9
     30a:	42 2d       	mov	r20, r2
     30c:	eb 2d       	mov	r30, r11
     30e:	96 2e       	mov	r9, r22
     310:	41 2f       	mov	r20, r17
     312:	ed 2f       	mov	r30, r29
     314:	9a 30       	cpi	r25, 0x0A	; 10
     316:	48 31       	cpi	r20, 0x18	; 24
     318:	f6 31       	cpi	r31, 0x16	; 22
     31a:	a6 32       	cpi	r26, 0x26	; 38
     31c:	56 33       	cpi	r21, 0x36	; 54
     31e:	06 34       	cpi	r16, 0x46	; 70
     320:	b8 34       	cpi	r27, 0x48	; 72
     322:	6a 35       	cpi	r22, 0x5A	; 90
     324:	1c 36       	cpi	r17, 0x6C	; 108
     326:	cf 36       	cpi	r28, 0x6F	; 111
     328:	83 37       	cpi	r24, 0x73	; 115
     32a:	37 38       	cpi	r19, 0x87	; 135
     32c:	ec 38       	cpi	r30, 0x8C	; 140
     32e:	a1 39       	cpi	r26, 0x91	; 145
     330:	57 3a       	cpi	r21, 0xA7	; 167
     332:	0d 3b       	cpi	r16, 0xBD	; 189
     334:	c3 3b       	cpi	r28, 0xB3	; 179
     336:	7a 3c       	cpi	r23, 0xCA	; 202
     338:	31 3d       	cpi	r19, 0xD1	; 209
     33a:	e9 3d       	cpi	r30, 0xD9	; 217
     33c:	a0 3e       	cpi	r26, 0xE0	; 224
     33e:	58 3f       	cpi	r21, 0xF8	; 248
     340:	10 40       	sbci	r17, 0x00	; 0
     342:	c9 40       	sbci	r28, 0x09	; 9
     344:	81 41       	sbci	r24, 0x11	; 17
     346:	3a 42       	sbci	r19, 0x2A	; 42
     348:	f3 42       	sbci	r31, 0x23	; 35
     34a:	ac 43       	sbci	r26, 0x3C	; 60
     34c:	65 44       	sbci	r22, 0x45	; 69
     34e:	1e 45       	sbci	r17, 0x5E	; 94
     350:	d7 45       	sbci	r29, 0x57	; 87
     352:	90 46       	sbci	r25, 0x60	; 96
     354:	48 47       	sbci	r20, 0x78	; 120
     356:	01 48       	sbci	r16, 0x81	; 129
     358:	ba 48       	sbci	r27, 0x8A	; 138
     35a:	72 49       	sbci	r23, 0x92	; 146
     35c:	2b 4a       	sbci	r18, 0xAB	; 171
     35e:	e3 4a       	sbci	r30, 0xA3	; 163
     360:	9b 4b       	sbci	r25, 0xBB	; 187
     362:	53 4c       	sbci	r21, 0xC3	; 195
     364:	0a 4d       	sbci	r16, 0xDA	; 218
     366:	c1 4d       	sbci	r28, 0xD1	; 209
     368:	78 4e       	sbci	r23, 0xE8	; 232
     36a:	2f 4f       	sbci	r18, 0xFF	; 255
     36c:	e5 4f       	sbci	r30, 0xF5	; 245
     36e:	9a 50       	subi	r25, 0x0A	; 10
     370:	4f 51       	subi	r20, 0x1F	; 31
     372:	04 52       	subi	r16, 0x24	; 36
     374:	b8 52       	subi	r27, 0x28	; 40
     376:	6c 53       	subi	r22, 0x3C	; 60
     378:	1f 54       	subi	r17, 0x4F	; 79
     37a:	d2 54       	subi	r29, 0x42	; 66
     37c:	84 55       	subi	r24, 0x54	; 84
     37e:	35 56       	subi	r19, 0x65	; 101
     380:	e6 56       	subi	r30, 0x66	; 102
     382:	96 57       	subi	r25, 0x76	; 118
     384:	45 58       	subi	r20, 0x85	; 133
     386:	f4 58       	subi	r31, 0x84	; 132
     388:	a1 59       	subi	r26, 0x91	; 145
     38a:	4e 5a       	subi	r20, 0xAE	; 174
     38c:	fa 5a       	subi	r31, 0xAA	; 170
     38e:	a6 5b       	subi	r26, 0xB6	; 182
     390:	50 5c       	subi	r21, 0xC0	; 192
     392:	fa 5c       	subi	r31, 0xCA	; 202
     394:	a2 5d       	subi	r26, 0xD2	; 210
     396:	4a 5e       	subi	r20, 0xEA	; 234
     398:	f1 5e       	subi	r31, 0xE1	; 225
     39a:	97 5f       	subi	r25, 0xF7	; 247
     39c:	3b 60       	ori	r19, 0x0B	; 11
     39e:	df 60       	ori	r29, 0x0F	; 15
     3a0:	82 61       	ori	r24, 0x12	; 18
     3a2:	23 62       	ori	r18, 0x23	; 35
     3a4:	c3 62       	ori	r28, 0x23	; 35
     3a6:	63 63       	ori	r22, 0x33	; 51
     3a8:	01 64       	ori	r16, 0x41	; 65
     3aa:	9e 64       	ori	r25, 0x4E	; 78
     3ac:	39 65       	ori	r19, 0x59	; 89
     3ae:	d4 65       	ori	r29, 0x54	; 84
     3b0:	6d 66       	ori	r22, 0x6D	; 109
     3b2:	05 67       	ori	r16, 0x75	; 117
     3b4:	9b 67       	ori	r25, 0x7B	; 123
     3b6:	31 68       	ori	r19, 0x81	; 129
     3b8:	c4 68       	ori	r28, 0x84	; 132
     3ba:	57 69       	ori	r21, 0x97	; 151
     3bc:	e8 69       	ori	r30, 0x98	; 152
     3be:	78 6a       	ori	r23, 0xA8	; 168
     3c0:	06 6b       	ori	r16, 0xB6	; 182
     3c2:	93 6b       	ori	r25, 0xB3	; 179
     3c4:	1e 6c       	ori	r17, 0xCE	; 206
     3c6:	a8 6c       	ori	r26, 0xC8	; 200
     3c8:	30 6d       	ori	r19, 0xD0	; 208
     3ca:	b7 6d       	ori	r27, 0xD7	; 215
     3cc:	3c 6e       	ori	r19, 0xEC	; 236
     3ce:	c0 6e       	ori	r28, 0xE0	; 224
     3d0:	42 6f       	ori	r20, 0xF2	; 242
     3d2:	c2 6f       	ori	r28, 0xF2	; 242
     3d4:	41 70       	andi	r20, 0x01	; 1
     3d6:	be 70       	andi	r27, 0x0E	; 14
     3d8:	39 71       	andi	r19, 0x19	; 25
     3da:	b3 71       	andi	r27, 0x13	; 19
     3dc:	2b 72       	andi	r18, 0x2B	; 43
     3de:	a1 72       	andi	r26, 0x21	; 33
     3e0:	16 73       	andi	r17, 0x36	; 54
     3e2:	88 73       	andi	r24, 0x38	; 56
     3e4:	f9 73       	andi	r31, 0x39	; 57
     3e6:	68 74       	andi	r22, 0x48	; 72
     3e8:	d6 74       	andi	r29, 0x46	; 70
     3ea:	41 75       	andi	r20, 0x51	; 81
     3ec:	ab 75       	andi	r26, 0x5B	; 91
     3ee:	12 76       	andi	r17, 0x62	; 98
     3f0:	78 76       	andi	r23, 0x68	; 104
     3f2:	dc 76       	andi	r29, 0x6C	; 108
     3f4:	3e 77       	andi	r19, 0x7E	; 126
     3f6:	9e 77       	andi	r25, 0x7E	; 126
     3f8:	fc 77       	andi	r31, 0x7C	; 124
     3fa:	58 78       	andi	r21, 0x88	; 136
     3fc:	b3 78       	andi	r27, 0x83	; 131
     3fe:	0b 79       	andi	r16, 0x9B	; 155
     400:	61 79       	andi	r22, 0x91	; 145
     402:	b5 79       	andi	r27, 0x95	; 149
     404:	07 7a       	andi	r16, 0xA7	; 167
     406:	57 7a       	andi	r21, 0xA7	; 167
     408:	a5 7a       	andi	r26, 0xA5	; 165
     40a:	f1 7a       	andi	r31, 0xA1	; 161
     40c:	3b 7b       	andi	r19, 0xBB	; 187
     40e:	83 7b       	andi	r24, 0xB3	; 179
     410:	c9 7b       	andi	r28, 0xB9	; 185
     412:	0c 7c       	andi	r16, 0xCC	; 204
     414:	4e 7c       	andi	r20, 0xCE	; 206
     416:	8d 7c       	andi	r24, 0xCD	; 205
     418:	cb 7c       	andi	r28, 0xCB	; 203
     41a:	06 7d       	andi	r16, 0xD6	; 214
     41c:	3f 7d       	andi	r19, 0xDF	; 223
     41e:	75 7d       	andi	r23, 0xD5	; 213
     420:	aa 7d       	andi	r26, 0xDA	; 218
     422:	dc 7d       	andi	r29, 0xDC	; 220
     424:	0d 7e       	andi	r16, 0xED	; 237
     426:	3b 7e       	andi	r19, 0xEB	; 235
     428:	67 7e       	andi	r22, 0xE7	; 231
     42a:	90 7e       	andi	r25, 0xE0	; 224
     42c:	b8 7e       	andi	r27, 0xE8	; 232
     42e:	dd 7e       	andi	r29, 0xED	; 237
     430:	00 7f       	andi	r16, 0xF0	; 240
     432:	21 7f       	andi	r18, 0xF1	; 241
     434:	3f 7f       	andi	r19, 0xFF	; 255
     436:	5b 7f       	andi	r21, 0xFB	; 251
     438:	75 7f       	andi	r23, 0xF5	; 245
     43a:	8d 7f       	andi	r24, 0xFD	; 253
     43c:	a3 7f       	andi	r26, 0xF3	; 243
     43e:	b6 7f       	andi	r27, 0xF6	; 246
     440:	c7 7f       	andi	r28, 0xF7	; 247
     442:	d6 7f       	andi	r29, 0xF6	; 246
     444:	e2 7f       	andi	r30, 0xF2	; 242
     446:	ec 7f       	andi	r30, 0xFC	; 252
     448:	f4 7f       	andi	r31, 0xF4	; 244
     44a:	fa 7f       	andi	r31, 0xFA	; 250
     44c:	fd 7f       	andi	r31, 0xFD	; 253
     44e:	fe 7f       	andi	r31, 0xFE	; 254
     450:	fd 7f       	andi	r31, 0xFD	; 253
     452:	fa 7f       	andi	r31, 0xFA	; 250
     454:	f4 7f       	andi	r31, 0xF4	; 244
     456:	ec 7f       	andi	r30, 0xFC	; 252
     458:	e2 7f       	andi	r30, 0xF2	; 242
     45a:	d6 7f       	andi	r29, 0xF6	; 246
     45c:	c7 7f       	andi	r28, 0xF7	; 247
     45e:	b6 7f       	andi	r27, 0xF6	; 246
     460:	a3 7f       	andi	r26, 0xF3	; 243
     462:	8d 7f       	andi	r24, 0xFD	; 253
     464:	75 7f       	andi	r23, 0xF5	; 245
     466:	5b 7f       	andi	r21, 0xFB	; 251
     468:	3f 7f       	andi	r19, 0xFF	; 255
     46a:	21 7f       	andi	r18, 0xF1	; 241
     46c:	00 7f       	andi	r16, 0xF0	; 240
     46e:	dd 7e       	andi	r29, 0xED	; 237
     470:	b8 7e       	andi	r27, 0xE8	; 232
     472:	90 7e       	andi	r25, 0xE0	; 224
     474:	67 7e       	andi	r22, 0xE7	; 231
     476:	3b 7e       	andi	r19, 0xEB	; 235
     478:	0d 7e       	andi	r16, 0xED	; 237
     47a:	dd 7d       	andi	r29, 0xDD	; 221
     47c:	aa 7d       	andi	r26, 0xDA	; 218
     47e:	75 7d       	andi	r23, 0xD5	; 213
     480:	3f 7d       	andi	r19, 0xDF	; 223
     482:	06 7d       	andi	r16, 0xD6	; 214
     484:	cb 7c       	andi	r28, 0xCB	; 203
     486:	8d 7c       	andi	r24, 0xCD	; 205
     488:	4e 7c       	andi	r20, 0xCE	; 206
     48a:	0d 7c       	andi	r16, 0xCD	; 205
     48c:	c9 7b       	andi	r28, 0xB9	; 185
     48e:	83 7b       	andi	r24, 0xB3	; 179
     490:	3b 7b       	andi	r19, 0xBB	; 187
     492:	f1 7a       	andi	r31, 0xA1	; 161
     494:	a5 7a       	andi	r26, 0xA5	; 165
     496:	57 7a       	andi	r21, 0xA7	; 167
     498:	07 7a       	andi	r16, 0xA7	; 167
     49a:	b5 79       	andi	r27, 0x95	; 149
     49c:	61 79       	andi	r22, 0x91	; 145
     49e:	0b 79       	andi	r16, 0x9B	; 155
     4a0:	b3 78       	andi	r27, 0x83	; 131
     4a2:	58 78       	andi	r21, 0x88	; 136
     4a4:	fc 77       	andi	r31, 0x7C	; 124
     4a6:	9e 77       	andi	r25, 0x7E	; 126
     4a8:	3e 77       	andi	r19, 0x7E	; 126
     4aa:	dc 76       	andi	r29, 0x6C	; 108
     4ac:	78 76       	andi	r23, 0x68	; 104
     4ae:	12 76       	andi	r17, 0x62	; 98
     4b0:	ab 75       	andi	r26, 0x5B	; 91
     4b2:	41 75       	andi	r20, 0x51	; 81
     4b4:	d6 74       	andi	r29, 0x46	; 70
     4b6:	68 74       	andi	r22, 0x48	; 72
     4b8:	f9 73       	andi	r31, 0x39	; 57
     4ba:	88 73       	andi	r24, 0x38	; 56
     4bc:	16 73       	andi	r17, 0x36	; 54
     4be:	a1 72       	andi	r26, 0x21	; 33
     4c0:	2b 72       	andi	r18, 0x2B	; 43
     4c2:	b3 71       	andi	r27, 0x13	; 19
     4c4:	39 71       	andi	r19, 0x19	; 25
     4c6:	be 70       	andi	r27, 0x0E	; 14
     4c8:	41 70       	andi	r20, 0x01	; 1
     4ca:	c2 6f       	ori	r28, 0xF2	; 242
     4cc:	42 6f       	ori	r20, 0xF2	; 242
     4ce:	c0 6e       	ori	r28, 0xE0	; 224
     4d0:	3c 6e       	ori	r19, 0xEC	; 236
     4d2:	b7 6d       	ori	r27, 0xD7	; 215
     4d4:	30 6d       	ori	r19, 0xD0	; 208
     4d6:	a8 6c       	ori	r26, 0xC8	; 200
     4d8:	1e 6c       	ori	r17, 0xCE	; 206
     4da:	93 6b       	ori	r25, 0xB3	; 179
     4dc:	06 6b       	ori	r16, 0xB6	; 182
     4de:	78 6a       	ori	r23, 0xA8	; 168
     4e0:	e8 69       	ori	r30, 0x98	; 152
     4e2:	57 69       	ori	r21, 0x97	; 151
     4e4:	c4 68       	ori	r28, 0x84	; 132
     4e6:	31 68       	ori	r19, 0x81	; 129
     4e8:	9b 67       	ori	r25, 0x7B	; 123
     4ea:	05 67       	ori	r16, 0x75	; 117
     4ec:	6d 66       	ori	r22, 0x6D	; 109
     4ee:	d4 65       	ori	r29, 0x54	; 84
     4f0:	39 65       	ori	r19, 0x59	; 89
     4f2:	9e 64       	ori	r25, 0x4E	; 78
     4f4:	01 64       	ori	r16, 0x41	; 65
     4f6:	63 63       	ori	r22, 0x33	; 51
     4f8:	c3 62       	ori	r28, 0x23	; 35
     4fa:	23 62       	ori	r18, 0x23	; 35
     4fc:	82 61       	ori	r24, 0x12	; 18
     4fe:	df 60       	ori	r29, 0x0F	; 15
     500:	3b 60       	ori	r19, 0x0B	; 11
     502:	97 5f       	subi	r25, 0xF7	; 247
     504:	f1 5e       	subi	r31, 0xE1	; 225
     506:	4a 5e       	subi	r20, 0xEA	; 234
     508:	a2 5d       	subi	r26, 0xD2	; 210
     50a:	fa 5c       	subi	r31, 0xCA	; 202
     50c:	50 5c       	subi	r21, 0xC0	; 192
     50e:	a6 5b       	subi	r26, 0xB6	; 182
     510:	fb 5a       	subi	r31, 0xAB	; 171
     512:	4e 5a       	subi	r20, 0xAE	; 174
     514:	a1 59       	subi	r26, 0x91	; 145
     516:	f4 58       	subi	r31, 0x84	; 132
     518:	45 58       	subi	r20, 0x85	; 133
     51a:	96 57       	subi	r25, 0x76	; 118
     51c:	e6 56       	subi	r30, 0x66	; 102
     51e:	35 56       	subi	r19, 0x65	; 101
     520:	84 55       	subi	r24, 0x54	; 84
     522:	d2 54       	subi	r29, 0x42	; 66
     524:	1f 54       	subi	r17, 0x4F	; 79
     526:	6c 53       	subi	r22, 0x3C	; 60
     528:	b8 52       	subi	r27, 0x28	; 40
     52a:	04 52       	subi	r16, 0x24	; 36
     52c:	4f 51       	subi	r20, 0x1F	; 31
     52e:	9a 50       	subi	r25, 0x0A	; 10
     530:	e5 4f       	sbci	r30, 0xF5	; 245
     532:	2f 4f       	sbci	r18, 0xFF	; 255
     534:	78 4e       	sbci	r23, 0xE8	; 232
     536:	c1 4d       	sbci	r28, 0xD1	; 209
     538:	0a 4d       	sbci	r16, 0xDA	; 218
     53a:	53 4c       	sbci	r21, 0xC3	; 195
     53c:	9b 4b       	sbci	r25, 0xBB	; 187
     53e:	e3 4a       	sbci	r30, 0xA3	; 163
     540:	2b 4a       	sbci	r18, 0xAB	; 171
     542:	73 49       	sbci	r23, 0x93	; 147
     544:	ba 48       	sbci	r27, 0x8A	; 138
     546:	01 48       	sbci	r16, 0x81	; 129
     548:	49 47       	sbci	r20, 0x79	; 121
     54a:	90 46       	sbci	r25, 0x60	; 96
     54c:	d7 45       	sbci	r29, 0x57	; 87
     54e:	1e 45       	sbci	r17, 0x5E	; 94
     550:	65 44       	sbci	r22, 0x45	; 69
     552:	ac 43       	sbci	r26, 0x3C	; 60
     554:	f3 42       	sbci	r31, 0x23	; 35
     556:	3a 42       	sbci	r19, 0x2A	; 42
     558:	81 41       	sbci	r24, 0x11	; 17
     55a:	c9 40       	sbci	r28, 0x09	; 9
     55c:	11 40       	sbci	r17, 0x01	; 1
     55e:	58 3f       	cpi	r21, 0xF8	; 248
     560:	a0 3e       	cpi	r26, 0xE0	; 224
     562:	e9 3d       	cpi	r30, 0xD9	; 217
     564:	31 3d       	cpi	r19, 0xD1	; 209
     566:	7a 3c       	cpi	r23, 0xCA	; 202
     568:	c3 3b       	cpi	r28, 0xB3	; 179
     56a:	0d 3b       	cpi	r16, 0xBD	; 189
     56c:	57 3a       	cpi	r21, 0xA7	; 167
     56e:	a1 39       	cpi	r26, 0x91	; 145
     570:	ec 38       	cpi	r30, 0x8C	; 140
     572:	37 38       	cpi	r19, 0x87	; 135
     574:	83 37       	cpi	r24, 0x73	; 115
     576:	cf 36       	cpi	r28, 0x6F	; 111
     578:	1c 36       	cpi	r17, 0x6C	; 108
     57a:	6a 35       	cpi	r22, 0x5A	; 90
     57c:	b8 34       	cpi	r27, 0x48	; 72
     57e:	06 34       	cpi	r16, 0x46	; 70
     580:	56 33       	cpi	r21, 0x36	; 54
     582:	a6 32       	cpi	r26, 0x26	; 38
     584:	f6 31       	cpi	r31, 0x16	; 22
     586:	48 31       	cpi	r20, 0x18	; 24
     588:	9a 30       	cpi	r25, 0x0A	; 10
     58a:	ed 2f       	mov	r30, r29
     58c:	41 2f       	mov	r20, r17
     58e:	96 2e       	mov	r9, r22
     590:	eb 2d       	mov	r30, r11
     592:	42 2d       	mov	r20, r2
     594:	99 2c       	mov	r9, r9
     596:	f1 2b       	or	r31, r17
     598:	4b 2b       	or	r20, r27
     59a:	a5 2a       	or	r10, r21
     59c:	00 2a       	or	r0, r16
     59e:	5c 29       	or	r21, r12
     5a0:	ba 28       	or	r11, r10
     5a2:	18 28       	or	r1, r8
     5a4:	78 27       	eor	r23, r24
     5a6:	d9 26       	eor	r13, r25
     5a8:	3b 26       	eor	r3, r27
     5aa:	9e 25       	eor	r25, r14
     5ac:	02 25       	eor	r16, r2
     5ae:	68 24       	eor	r6, r8
     5b0:	cf 23       	and	r28, r31
     5b2:	37 23       	and	r19, r23
     5b4:	a0 22       	and	r10, r16
     5b6:	0b 22       	and	r0, r27
     5b8:	77 21       	and	r23, r7
     5ba:	e4 20       	and	r14, r4
     5bc:	53 20       	and	r5, r3
     5be:	c4 1f       	adc	r28, r20
     5c0:	35 1f       	adc	r19, r21
     5c2:	a9 1e       	adc	r10, r25
     5c4:	1d 1e       	adc	r1, r29
     5c6:	93 1d       	adc	r25, r3
     5c8:	0b 1d       	adc	r16, r11
     5ca:	84 1c       	adc	r8, r4
     5cc:	ff 1b       	sub	r31, r31
     5ce:	7c 1b       	sub	r23, r28
     5d0:	fa 1a       	sub	r15, r26
     5d2:	79 1a       	sub	r7, r25
     5d4:	fb 19       	sub	r31, r11
     5d6:	7e 19       	sub	r23, r14
     5d8:	02 19       	sub	r16, r2
     5da:	88 18       	sub	r8, r8
     5dc:	10 18       	sub	r1, r0
     5de:	9a 17       	cp	r25, r26
     5e0:	26 17       	cp	r18, r22
     5e2:	b3 16       	cp	r11, r19
     5e4:	42 16       	cp	r4, r18
     5e6:	d3 15       	cp	r29, r3
     5e8:	66 15       	cp	r22, r6
     5ea:	fa 14       	cp	r15, r10
     5ec:	91 14       	cp	r9, r1
     5ee:	29 14       	cp	r2, r9
     5f0:	c3 13       	cpse	r28, r19
     5f2:	5f 13       	cpse	r21, r31
     5f4:	fd 12       	cpse	r15, r29
     5f6:	9d 12       	cpse	r9, r29
     5f8:	3f 12       	cpse	r3, r31
     5fa:	e3 11       	cpse	r30, r3
     5fc:	89 11       	cpse	r24, r9
     5fe:	31 11       	cpse	r19, r1
     600:	da 10       	cpse	r13, r10
     602:	86 10       	cpse	r8, r6
     604:	34 10       	cpse	r3, r4
     606:	e4 0f       	add	r30, r20
     608:	96 0f       	add	r25, r22
     60a:	4a 0f       	add	r20, r26
     60c:	00 0f       	add	r16, r16
     60e:	b8 0e       	add	r11, r24
     610:	73 0e       	add	r7, r19
     612:	2f 0e       	add	r2, r31
     614:	ed 0d       	add	r30, r13
     616:	ae 0d       	add	r26, r14
     618:	71 0d       	add	r23, r1
     61a:	36 0d       	add	r19, r6
     61c:	fd 0c       	add	r15, r13
     61e:	c6 0c       	add	r12, r6
     620:	91 0c       	add	r9, r1
     622:	5f 0c       	add	r5, r15
     624:	2f 0c       	add	r2, r15
     626:	01 0c       	add	r0, r1
     628:	d5 0b       	sbc	r29, r21
     62a:	ab 0b       	sbc	r26, r27
     62c:	84 0b       	sbc	r24, r20
     62e:	5e 0b       	sbc	r21, r30
     630:	3c 0b       	sbc	r19, r28
     632:	1b 0b       	sbc	r17, r27
     634:	fc 0a       	sbc	r15, r28
     636:	e0 0a       	sbc	r14, r16
     638:	c6 0a       	sbc	r12, r22
     63a:	ae 0a       	sbc	r10, r30
     63c:	99 0a       	sbc	r9, r25
     63e:	85 0a       	sbc	r8, r21
     640:	74 0a       	sbc	r7, r20
     642:	66 0a       	sbc	r6, r22
     644:	59 0a       	sbc	r5, r25
     646:	4f 0a       	sbc	r4, r31
     648:	47 0a       	sbc	r4, r23
     64a:	41 0a       	sbc	r4, r17
     64c:	3e 0a       	sbc	r3, r30

0000064e <tbl_cos_sin>:
     64e:	ff 7f       	andi	r31, 0xFF	; 255
     650:	00 00       	nop
     652:	fc 7f       	andi	r31, 0xFC	; 252
     654:	92 01       	movw	r18, r4
     656:	f5 7f       	andi	r31, 0xF5	; 245
     658:	24 03       	mulsu	r18, r20
     65a:	e8 7f       	andi	r30, 0xF8	; 248
     65c:	b6 04       	cpc	r11, r6
     65e:	d7 7f       	andi	r29, 0xF7	; 247
     660:	47 06       	cpc	r4, r23
     662:	c1 7f       	andi	r28, 0xF1	; 241
     664:	d9 07       	cpc	r29, r25
     666:	a6 7f       	andi	r26, 0xF6	; 246
     668:	6a 09       	sbc	r22, r10
     66a:	86 7f       	andi	r24, 0xF6	; 246
     66c:	fb 0a       	sbc	r15, r27
     66e:	61 7f       	andi	r22, 0xF1	; 241
     670:	8b 0c       	add	r8, r11
     672:	37 7f       	andi	r19, 0xF7	; 247
     674:	1b 0e       	add	r1, r27
     676:	08 7f       	andi	r16, 0xF8	; 248
     678:	ab 0f       	add	r26, r27
     67a:	d4 7e       	andi	r29, 0xE4	; 228
     67c:	39 11       	cpse	r19, r9
     67e:	9c 7e       	andi	r25, 0xEC	; 236
     680:	c7 12       	cpse	r12, r23
     682:	5e 7e       	andi	r21, 0xEE	; 238
     684:	55 14       	cp	r5, r5
     686:	1c 7e       	andi	r17, 0xEC	; 236
     688:	e1 15       	cp	r30, r1
     68a:	d5 7d       	andi	r29, 0xD5	; 213
     68c:	6d 17       	cp	r22, r29
     68e:	89 7d       	andi	r24, 0xD9	; 217
     690:	f8 18       	sub	r15, r8
     692:	38 7d       	andi	r19, 0xD8	; 216
     694:	82 1a       	sub	r8, r18
     696:	e2 7c       	andi	r30, 0xC2	; 194
     698:	0b 1c       	adc	r0, r11
     69a:	88 7c       	andi	r24, 0xC8	; 200
     69c:	93 1d       	adc	r25, r3
     69e:	29 7c       	andi	r18, 0xC9	; 201
     6a0:	19 1f       	adc	r17, r25
     6a2:	c4 7b       	andi	r28, 0xB4	; 180
     6a4:	9f 20       	and	r9, r15
     6a6:	5c 7b       	andi	r21, 0xBC	; 188
     6a8:	23 22       	and	r2, r19
     6aa:	ee 7a       	andi	r30, 0xAE	; 174
     6ac:	a6 23       	and	r26, r22
     6ae:	7c 7a       	andi	r23, 0xAC	; 172
     6b0:	27 25       	eor	r18, r7
     6b2:	04 7a       	andi	r16, 0xA4	; 164
     6b4:	a7 26       	eor	r10, r23
     6b6:	89 79       	andi	r24, 0x99	; 153
     6b8:	26 28       	or	r2, r6
     6ba:	08 79       	andi	r16, 0x98	; 152
     6bc:	a3 29       	or	r26, r3
     6be:	83 78       	andi	r24, 0x83	; 131
     6c0:	1e 2b       	or	r17, r30
     6c2:	f9 77       	andi	r31, 0x79	; 121
     6c4:	98 2c       	mov	r9, r8
     6c6:	6b 77       	andi	r22, 0x7B	; 123
     6c8:	10 2e       	mov	r1, r16
     6ca:	d8 76       	andi	r29, 0x68	; 104
     6cc:	86 2f       	mov	r24, r22
     6ce:	40 76       	andi	r20, 0x60	; 96
     6d0:	fb 30       	cpi	r31, 0x0B	; 11
     6d2:	a4 75       	andi	r26, 0x54	; 84
     6d4:	6d 32       	cpi	r22, 0x2D	; 45
     6d6:	03 75       	andi	r16, 0x53	; 83
     6d8:	de 33       	cpi	r29, 0x3E	; 62
     6da:	5e 74       	andi	r21, 0x4E	; 78
     6dc:	4d 35       	cpi	r20, 0x5D	; 93
     6de:	b5 73       	andi	r27, 0x35	; 53
     6e0:	b9 36       	cpi	r27, 0x69	; 105
     6e2:	06 73       	andi	r16, 0x36	; 54
     6e4:	24 38       	cpi	r18, 0x84	; 132
     6e6:	54 72       	andi	r21, 0x24	; 36
     6e8:	8c 39       	cpi	r24, 0x9C	; 156
     6ea:	9d 71       	andi	r25, 0x1D	; 29
     6ec:	f2 3a       	cpi	r31, 0xA2	; 162
     6ee:	e1 70       	andi	r30, 0x01	; 1
     6f0:	56 3c       	cpi	r21, 0xC6	; 198
     6f2:	22 70       	andi	r18, 0x02	; 2
     6f4:	b7 3d       	cpi	r27, 0xD7	; 215
     6f6:	5e 6f       	ori	r21, 0xFE	; 254
     6f8:	16 3f       	cpi	r17, 0xF6	; 246
     6fa:	95 6e       	ori	r25, 0xE5	; 229
     6fc:	73 40       	sbci	r23, 0x03	; 3
     6fe:	c9 6d       	ori	r28, 0xD9	; 217
     700:	cd 41       	sbci	r28, 0x1D	; 29
     702:	f8 6c       	ori	r31, 0xC8	; 200
     704:	25 43       	sbci	r18, 0x35	; 53
     706:	23 6c       	ori	r18, 0xC3	; 195
     708:	7a 44       	sbci	r23, 0x4A	; 74
     70a:	4a 6b       	ori	r20, 0xBA	; 186
     70c:	cc 45       	sbci	r28, 0x5C	; 92
     70e:	6c 6a       	ori	r22, 0xAC	; 172
     710:	1c 47       	sbci	r17, 0x7C	; 124
     712:	8b 69       	ori	r24, 0x9B	; 155
     714:	69 48       	sbci	r22, 0x89	; 137
     716:	a5 68       	ori	r26, 0x85	; 133
     718:	b3 49       	sbci	r27, 0x93	; 147
     71a:	bc 67       	ori	r27, 0x7C	; 124
     71c:	fa 4a       	sbci	r31, 0xAA	; 170
     71e:	ce 66       	ori	r28, 0x6E	; 110
     720:	3f 4c       	sbci	r19, 0xCF	; 207
     722:	dd 65       	ori	r29, 0x5D	; 93
     724:	80 4d       	sbci	r24, 0xD0	; 208
     726:	e7 64       	ori	r30, 0x47	; 71
     728:	bf 4e       	sbci	r27, 0xEF	; 239
     72a:	ee 63       	ori	r30, 0x3E	; 62
     72c:	fa 4f       	sbci	r31, 0xFA	; 250
     72e:	f1 62       	ori	r31, 0x21	; 33
     730:	33 51       	subi	r19, 0x13	; 19
     732:	f0 61       	ori	r31, 0x10	; 16
     734:	68 52       	subi	r22, 0x28	; 40
     736:	eb 60       	ori	r30, 0x0B	; 11
     738:	9a 53       	subi	r25, 0x3A	; 58
     73a:	e2 5f       	subi	r30, 0xF2	; 242
     73c:	c9 54       	subi	r28, 0x49	; 73
     73e:	d6 5e       	subi	r29, 0xE6	; 230
     740:	f4 55       	subi	r31, 0x54	; 84
     742:	c6 5d       	subi	r28, 0xD6	; 214
     744:	1d 57       	subi	r17, 0x7D	; 125
     746:	b3 5c       	subi	r27, 0xC3	; 195
     748:	42 58       	subi	r20, 0x82	; 130
     74a:	9c 5b       	subi	r25, 0xBC	; 188
     74c:	63 59       	subi	r22, 0x93	; 147
     74e:	81 5a       	subi	r24, 0xA1	; 161
     750:	81 5a       	subi	r24, 0xA1	; 161
     752:	63 59       	subi	r22, 0x93	; 147
     754:	9c 5b       	subi	r25, 0xBC	; 188
     756:	42 58       	subi	r20, 0x82	; 130
     758:	b3 5c       	subi	r27, 0xC3	; 195
     75a:	1d 57       	subi	r17, 0x7D	; 125
     75c:	c6 5d       	subi	r28, 0xD6	; 214
     75e:	f4 55       	subi	r31, 0x54	; 84
     760:	d6 5e       	subi	r29, 0xE6	; 230
     762:	c9 54       	subi	r28, 0x49	; 73
     764:	e2 5f       	subi	r30, 0xF2	; 242
     766:	9a 53       	subi	r25, 0x3A	; 58
     768:	eb 60       	ori	r30, 0x0B	; 11
     76a:	68 52       	subi	r22, 0x28	; 40
     76c:	f0 61       	ori	r31, 0x10	; 16
     76e:	33 51       	subi	r19, 0x13	; 19
     770:	f1 62       	ori	r31, 0x21	; 33
     772:	fa 4f       	sbci	r31, 0xFA	; 250
     774:	ee 63       	ori	r30, 0x3E	; 62
     776:	bf 4e       	sbci	r27, 0xEF	; 239
     778:	e7 64       	ori	r30, 0x47	; 71
     77a:	80 4d       	sbci	r24, 0xD0	; 208
     77c:	dd 65       	ori	r29, 0x5D	; 93
     77e:	3f 4c       	sbci	r19, 0xCF	; 207
     780:	ce 66       	ori	r28, 0x6E	; 110
     782:	fa 4a       	sbci	r31, 0xAA	; 170
     784:	bc 67       	ori	r27, 0x7C	; 124
     786:	b3 49       	sbci	r27, 0x93	; 147
     788:	a5 68       	ori	r26, 0x85	; 133
     78a:	69 48       	sbci	r22, 0x89	; 137
     78c:	8b 69       	ori	r24, 0x9B	; 155
     78e:	1c 47       	sbci	r17, 0x7C	; 124
     790:	6c 6a       	ori	r22, 0xAC	; 172
     792:	cc 45       	sbci	r28, 0x5C	; 92
     794:	4a 6b       	ori	r20, 0xBA	; 186
     796:	7a 44       	sbci	r23, 0x4A	; 74
     798:	23 6c       	ori	r18, 0xC3	; 195
     79a:	25 43       	sbci	r18, 0x35	; 53
     79c:	f8 6c       	ori	r31, 0xC8	; 200
     79e:	cd 41       	sbci	r28, 0x1D	; 29
     7a0:	c9 6d       	ori	r28, 0xD9	; 217
     7a2:	73 40       	sbci	r23, 0x03	; 3
     7a4:	95 6e       	ori	r25, 0xE5	; 229
     7a6:	16 3f       	cpi	r17, 0xF6	; 246
     7a8:	5e 6f       	ori	r21, 0xFE	; 254
     7aa:	b7 3d       	cpi	r27, 0xD7	; 215
     7ac:	22 70       	andi	r18, 0x02	; 2
     7ae:	56 3c       	cpi	r21, 0xC6	; 198
     7b0:	e1 70       	andi	r30, 0x01	; 1
     7b2:	f2 3a       	cpi	r31, 0xA2	; 162
     7b4:	9d 71       	andi	r25, 0x1D	; 29
     7b6:	8c 39       	cpi	r24, 0x9C	; 156
     7b8:	54 72       	andi	r21, 0x24	; 36
     7ba:	24 38       	cpi	r18, 0x84	; 132
     7bc:	06 73       	andi	r16, 0x36	; 54
     7be:	b9 36       	cpi	r27, 0x69	; 105
     7c0:	b5 73       	andi	r27, 0x35	; 53
     7c2:	4d 35       	cpi	r20, 0x5D	; 93
     7c4:	5e 74       	andi	r21, 0x4E	; 78
     7c6:	de 33       	cpi	r29, 0x3E	; 62
     7c8:	03 75       	andi	r16, 0x53	; 83
     7ca:	6d 32       	cpi	r22, 0x2D	; 45
     7cc:	a4 75       	andi	r26, 0x54	; 84
     7ce:	fb 30       	cpi	r31, 0x0B	; 11
     7d0:	40 76       	andi	r20, 0x60	; 96
     7d2:	86 2f       	mov	r24, r22
     7d4:	d8 76       	andi	r29, 0x68	; 104
     7d6:	10 2e       	mov	r1, r16
     7d8:	6b 77       	andi	r22, 0x7B	; 123
     7da:	98 2c       	mov	r9, r8
     7dc:	f9 77       	andi	r31, 0x79	; 121
     7de:	1e 2b       	or	r17, r30
     7e0:	83 78       	andi	r24, 0x83	; 131
     7e2:	a3 29       	or	r26, r3
     7e4:	08 79       	andi	r16, 0x98	; 152
     7e6:	26 28       	or	r2, r6
     7e8:	89 79       	andi	r24, 0x99	; 153
     7ea:	a7 26       	eor	r10, r23
     7ec:	04 7a       	andi	r16, 0xA4	; 164
     7ee:	27 25       	eor	r18, r7
     7f0:	7c 7a       	andi	r23, 0xAC	; 172
     7f2:	a6 23       	and	r26, r22
     7f4:	ee 7a       	andi	r30, 0xAE	; 174
     7f6:	23 22       	and	r2, r19
     7f8:	5c 7b       	andi	r21, 0xBC	; 188
     7fa:	9f 20       	and	r9, r15
     7fc:	c4 7b       	andi	r28, 0xB4	; 180
     7fe:	19 1f       	adc	r17, r25
     800:	29 7c       	andi	r18, 0xC9	; 201
     802:	93 1d       	adc	r25, r3
     804:	88 7c       	andi	r24, 0xC8	; 200
     806:	0b 1c       	adc	r0, r11
     808:	e2 7c       	andi	r30, 0xC2	; 194
     80a:	82 1a       	sub	r8, r18
     80c:	38 7d       	andi	r19, 0xD8	; 216
     80e:	f8 18       	sub	r15, r8
     810:	89 7d       	andi	r24, 0xD9	; 217
     812:	6d 17       	cp	r22, r29
     814:	d5 7d       	andi	r29, 0xD5	; 213
     816:	e1 15       	cp	r30, r1
     818:	1c 7e       	andi	r17, 0xEC	; 236
     81a:	55 14       	cp	r5, r5
     81c:	5e 7e       	andi	r21, 0xEE	; 238
     81e:	c7 12       	cpse	r12, r23
     820:	9c 7e       	andi	r25, 0xEC	; 236
     822:	39 11       	cpse	r19, r9
     824:	d4 7e       	andi	r29, 0xE4	; 228
     826:	ab 0f       	add	r26, r27
     828:	08 7f       	andi	r16, 0xF8	; 248
     82a:	1b 0e       	add	r1, r27
     82c:	37 7f       	andi	r19, 0xF7	; 247
     82e:	8b 0c       	add	r8, r11
     830:	61 7f       	andi	r22, 0xF1	; 241
     832:	fb 0a       	sbc	r15, r27
     834:	86 7f       	andi	r24, 0xF6	; 246
     836:	6a 09       	sbc	r22, r10
     838:	a6 7f       	andi	r26, 0xF6	; 246
     83a:	d9 07       	cpc	r29, r25
     83c:	c1 7f       	andi	r28, 0xF1	; 241
     83e:	47 06       	cpc	r4, r23
     840:	d7 7f       	andi	r29, 0xF7	; 247
     842:	b6 04       	cpc	r11, r6
     844:	e8 7f       	andi	r30, 0xF8	; 248
     846:	24 03       	mulsu	r18, r20
     848:	f5 7f       	andi	r31, 0xF5	; 245
     84a:	92 01       	movw	r18, r4
     84c:	fc 7f       	andi	r31, 0xFC	; 252
     84e:	00 00       	nop
     850:	fe 7f       	andi	r31, 0xFE	; 254
     852:	6e fe       	.word	0xfe6e	; ????
     854:	fc 7f       	andi	r31, 0xFC	; 252
     856:	dc fc       	.word	0xfcdc	; ????
     858:	f5 7f       	andi	r31, 0xF5	; 245
     85a:	4a fb       	.word	0xfb4a	; ????
     85c:	e8 7f       	andi	r30, 0xF8	; 248
     85e:	b9 f9       	.word	0xf9b9	; ????
     860:	d7 7f       	andi	r29, 0xF7	; 247
     862:	27 f8       	bld	r2, 7
     864:	c1 7f       	andi	r28, 0xF1	; 241
     866:	96 f6       	brtc	.-92     	; 0x80c <tbl_cos_sin+0x1be>
     868:	a6 7f       	andi	r26, 0xF6	; 246
     86a:	05 f5       	brhc	.+64     	; 0x8ac <tbl_cos_sin+0x25e>
     86c:	86 7f       	andi	r24, 0xF6	; 246
     86e:	75 f3       	brhs	.-36     	; 0x84c <tbl_cos_sin+0x1fe>
     870:	61 7f       	andi	r22, 0xF1	; 241
     872:	e5 f1       	brhs	.+120    	; 0x8ec <tbl_cos_sin+0x29e>
     874:	37 7f       	andi	r19, 0xF7	; 247
     876:	56 f0       	brts	.+20     	; 0x88c <tbl_cos_sin+0x23e>
     878:	08 7f       	andi	r16, 0xF8	; 248
     87a:	c7 ee       	ldi	r28, 0xE7	; 231
     87c:	d4 7e       	andi	r29, 0xE4	; 228
     87e:	39 ed       	ldi	r19, 0xD9	; 217
     880:	9c 7e       	andi	r25, 0xEC	; 236
     882:	ab eb       	ldi	r26, 0xBB	; 187
     884:	5e 7e       	andi	r21, 0xEE	; 238
     886:	1f ea       	ldi	r17, 0xAF	; 175
     888:	1c 7e       	andi	r17, 0xEC	; 236
     88a:	93 e8       	ldi	r25, 0x83	; 131
     88c:	d5 7d       	andi	r29, 0xD5	; 213
     88e:	08 e7       	ldi	r16, 0x78	; 120
     890:	89 7d       	andi	r24, 0xD9	; 217
     892:	7e e5       	ldi	r23, 0x5E	; 94
     894:	38 7d       	andi	r19, 0xD8	; 216
     896:	f5 e3       	ldi	r31, 0x35	; 53
     898:	e2 7c       	andi	r30, 0xC2	; 194
     89a:	6d e2       	ldi	r22, 0x2D	; 45
     89c:	88 7c       	andi	r24, 0xC8	; 200
     89e:	e7 e0       	ldi	r30, 0x07	; 7
     8a0:	29 7c       	andi	r18, 0xC9	; 201
     8a2:	61 df       	rcall	.-318    	; 0x766 <tbl_cos_sin+0x118>
     8a4:	c4 7b       	andi	r28, 0xB4	; 180
     8a6:	dd dd       	rcall	.-1094   	; 0x462 <__LOCK_REGION_LENGTH__+0x62>
     8a8:	5c 7b       	andi	r21, 0xBC	; 188
     8aa:	5a dc       	rcall	.-1868   	; 0x160 <__c.2332+0x4e>
     8ac:	ee 7a       	andi	r30, 0xAE	; 174
     8ae:	d9 da       	rcall	.-2638   	; 0xfffffe62 <__eeprom_end+0xff7efe62>
     8b0:	7c 7a       	andi	r23, 0xAC	; 172
     8b2:	59 d9       	rcall	.-3406   	; 0xfffffb66 <__eeprom_end+0xff7efb66>
     8b4:	04 7a       	andi	r16, 0xA4	; 164
     8b6:	da d7       	rcall	.+4020   	; 0x186c <note+0x9c>
     8b8:	89 79       	andi	r24, 0x99	; 153
     8ba:	5d d6       	rcall	.+3258   	; 0x1576 <main+0x3d2>
     8bc:	08 79       	andi	r16, 0x98	; 152
     8be:	e2 d4       	rcall	.+2500   	; 0x1284 <main+0xe0>
     8c0:	83 78       	andi	r24, 0x83	; 131
     8c2:	68 d3       	rcall	.+1744   	; 0xf94 <Command+0x1e>
     8c4:	f9 77       	andi	r31, 0x79	; 121
     8c6:	f0 d1       	rcall	.+992    	; 0xca8 <fft_input+0x5a>
     8c8:	6b 77       	andi	r22, 0x7B	; 123
     8ca:	7a d0       	rcall	.+244    	; 0x9c0 <tbl_cos_sin+0x372>
     8cc:	d8 76       	andi	r29, 0x68	; 104
     8ce:	05 cf       	rjmp	.-502    	; 0x6da <tbl_cos_sin+0x8c>
     8d0:	40 76       	andi	r20, 0x60	; 96
     8d2:	93 cd       	rjmp	.-1242   	; 0x3fa <tbl_window+0x1ac>
     8d4:	a4 75       	andi	r26, 0x54	; 84
     8d6:	22 cc       	rjmp	.-1980   	; 0x11c <__c.2332+0xa>
     8d8:	03 75       	andi	r16, 0x53	; 83
     8da:	b3 ca       	rjmp	.-2714   	; 0xfffffe42 <__eeprom_end+0xff7efe42>
     8dc:	5e 74       	andi	r21, 0x4E	; 78
     8de:	47 c9       	rjmp	.-3442   	; 0xfffffb6e <__eeprom_end+0xff7efb6e>
     8e0:	b5 73       	andi	r27, 0x35	; 53
     8e2:	dc c7       	rjmp	.+4024   	; 0x189c <note+0xcc>
     8e4:	06 73       	andi	r16, 0x36	; 54
     8e6:	74 c6       	rjmp	.+3304   	; 0x15d0 <main+0x42c>
     8e8:	54 72       	andi	r21, 0x24	; 36
     8ea:	0e c5       	rjmp	.+2588   	; 0x1308 <main+0x164>
     8ec:	9d 71       	andi	r25, 0x1D	; 29
     8ee:	aa c3       	rjmp	.+1876   	; 0x1044 <Data+0x14>
     8f0:	e1 70       	andi	r30, 0x01	; 1
     8f2:	49 c2       	rjmp	.+1170   	; 0xd86 <fft_execute+0xda>
     8f4:	22 70       	andi	r18, 0x02	; 2
     8f6:	ea c0       	rjmp	.+468    	; 0xacc <tbl_bitrev+0x7e>
     8f8:	5e 6f       	ori	r21, 0xFE	; 254
     8fa:	8d bf       	out	0x3d, r24	; 61
     8fc:	95 6e       	ori	r25, 0xE5	; 229
     8fe:	33 be       	out	0x33, r3	; 51
     900:	c9 6d       	ori	r28, 0xD9	; 217
     902:	db bc       	out	0x2b, r13	; 43
     904:	f8 6c       	ori	r31, 0xC8	; 200
     906:	86 bb       	out	0x16, r24	; 22
     908:	23 6c       	ori	r18, 0xC3	; 195
     90a:	34 ba       	out	0x14, r3	; 20
     90c:	4a 6b       	ori	r20, 0xBA	; 186
     90e:	e4 b8       	out	0x04, r14	; 4
     910:	6c 6a       	ori	r22, 0xAC	; 172
     912:	97 b7       	in	r25, 0x37	; 55
     914:	8b 69       	ori	r24, 0x9B	; 155
     916:	4d b6       	in	r4, 0x3d	; 61
     918:	a5 68       	ori	r26, 0x85	; 133
     91a:	06 b5       	in	r16, 0x26	; 38
     91c:	bc 67       	ori	r27, 0x7C	; 124
     91e:	c1 b3       	in	r28, 0x11	; 17
     920:	ce 66       	ori	r28, 0x6E	; 110
     922:	80 b2       	in	r8, 0x10	; 16
     924:	dd 65       	ori	r29, 0x5D	; 93
     926:	41 b1       	in	r20, 0x01	; 1
     928:	e7 64       	ori	r30, 0x47	; 71
     92a:	06 b0       	in	r0, 0x06	; 6
     92c:	ee 63       	ori	r30, 0x3E	; 62
     92e:	cd ae       	std	Y+61, r12	; 0x3d
     930:	f1 62       	ori	r31, 0x21	; 33
     932:	98 ad       	ldd	r25, Y+56	; 0x38
     934:	f0 61       	ori	r31, 0x10	; 16
     936:	66 ac       	ldd	r6, Z+62	; 0x3e
     938:	eb 60       	ori	r30, 0x0B	; 11
     93a:	37 ab       	std	Z+55, r19	; 0x37
     93c:	e2 5f       	subi	r30, 0xF2	; 242
     93e:	0c aa       	std	Y+52, r0	; 0x34
     940:	d6 5e       	subi	r29, 0xE6	; 230
     942:	e3 a8       	ldd	r14, Z+51	; 0x33
     944:	c6 5d       	subi	r28, 0xD6	; 214
     946:	be a7       	std	Y+46, r27	; 0x2e
     948:	b3 5c       	subi	r27, 0xC3	; 195
     94a:	9d a6       	std	Y+45, r9	; 0x2d
     94c:	9c 5b       	subi	r25, 0xBC	; 188
     94e:	7f a5       	ldd	r23, Y+47	; 0x2f
     950:	81 5a       	subi	r24, 0xA1	; 161
     952:	64 a4       	ldd	r6, Z+44	; 0x2c
     954:	63 59       	subi	r22, 0x93	; 147
     956:	4d a3       	std	Y+37, r20	; 0x25
     958:	42 58       	subi	r20, 0x82	; 130
     95a:	3a a2       	std	Y+34, r3	; 0x22
     95c:	1d 57       	subi	r17, 0x7D	; 125
     95e:	2a a1       	ldd	r18, Y+34	; 0x22
     960:	f5 55       	subi	r31, 0x55	; 85
     962:	1e a0       	ldd	r1, Y+38	; 0x26
     964:	c9 54       	subi	r28, 0x49	; 73
     966:	15 9f       	mul	r17, r21
     968:	9a 53       	subi	r25, 0x3A	; 58
     96a:	10 9e       	mul	r1, r16
     96c:	68 52       	subi	r22, 0x28	; 40
     96e:	0f 9d       	mul	r16, r15
     970:	33 51       	subi	r19, 0x13	; 19
     972:	12 9c       	mul	r1, r2
     974:	fa 4f       	sbci	r31, 0xFA	; 250
     976:	19 9b       	sbis	0x03, 1	; 3
     978:	bf 4e       	sbci	r27, 0xEF	; 239
     97a:	23 9a       	sbi	0x04, 3	; 4
     97c:	80 4d       	sbci	r24, 0xD0	; 208
     97e:	32 99       	sbic	0x06, 2	; 6
     980:	3f 4c       	sbci	r19, 0xCF	; 207
     982:	44 98       	cbi	0x08, 4	; 8
     984:	fa 4a       	sbci	r31, 0xAA	; 170
     986:	5b 97       	sbiw	r26, 0x1b	; 27
     988:	b3 49       	sbci	r27, 0x93	; 147
     98a:	75 96       	adiw	r30, 0x15	; 21
     98c:	69 48       	sbci	r22, 0x89	; 137
     98e:	94 95       	.word	0x9594	; ????
     990:	1c 47       	sbci	r17, 0x7C	; 124
     992:	b6 94       	lsr	r11
     994:	cc 45       	sbci	r28, 0x5C	; 92
     996:	dd 93       	st	X+, r29
     998:	7a 44       	sbci	r23, 0x4A	; 74
     99a:	08 93       	.word	0x9308	; ????
     99c:	25 43       	sbci	r18, 0x35	; 53
     99e:	37 92       	lat	Z, r3
     9a0:	cd 41       	sbci	r28, 0x1D	; 29
     9a2:	6b 91       	.word	0x916b	; ????
     9a4:	73 40       	sbci	r23, 0x03	; 3
     9a6:	a2 90       	ld	r10, -Z
     9a8:	16 3f       	cpi	r17, 0xF6	; 246
     9aa:	de 8f       	std	Y+30, r29	; 0x1e
     9ac:	b7 3d       	cpi	r27, 0xD7	; 215
     9ae:	1f 8f       	std	Y+31, r17	; 0x1f
     9b0:	56 3c       	cpi	r21, 0xC6	; 198
     9b2:	63 8e       	std	Z+27, r6	; 0x1b
     9b4:	f2 3a       	cpi	r31, 0xA2	; 162
     9b6:	ac 8d       	ldd	r26, Y+28	; 0x1c
     9b8:	8c 39       	cpi	r24, 0x9C	; 156
     9ba:	fa 8c       	ldd	r15, Y+26	; 0x1a
     9bc:	24 38       	cpi	r18, 0x84	; 132
     9be:	4c 8c       	ldd	r4, Y+28	; 0x1c
     9c0:	b9 36       	cpi	r27, 0x69	; 105
     9c2:	a2 8b       	std	Z+18, r26	; 0x12
     9c4:	4d 35       	cpi	r20, 0x5D	; 93
     9c6:	fd 8a       	std	Y+21, r15	; 0x15
     9c8:	de 33       	cpi	r29, 0x3E	; 62
     9ca:	5c 8a       	std	Y+20, r5	; 0x14
     9cc:	6e 32       	cpi	r22, 0x2E	; 46
     9ce:	c0 89       	ldd	r28, Z+16	; 0x10
     9d0:	fb 30       	cpi	r31, 0x0B	; 11
     9d2:	28 89       	ldd	r18, Y+16	; 0x10
     9d4:	87 2f       	mov	r24, r23
     9d6:	95 88       	ldd	r9, Z+21	; 0x15
     9d8:	10 2e       	mov	r1, r16
     9da:	07 88       	ldd	r0, Z+23	; 0x17
     9dc:	98 2c       	mov	r9, r8
     9de:	7d 87       	std	Y+13, r23	; 0x0d
     9e0:	1e 2b       	or	r17, r30
     9e2:	f8 86       	std	Y+8, r15	; 0x08
     9e4:	a3 29       	or	r26, r3
     9e6:	77 86       	std	Z+15, r7	; 0x0f
     9e8:	26 28       	or	r2, r6
     9ea:	fc 85       	ldd	r31, Y+12	; 0x0c
     9ec:	a7 26       	eor	r10, r23
     9ee:	84 85       	ldd	r24, Z+12	; 0x0c
     9f0:	27 25       	eor	r18, r7
     9f2:	12 85       	ldd	r17, Z+10	; 0x0a
     9f4:	a6 23       	and	r26, r22
     9f6:	a4 84       	ldd	r10, Z+12	; 0x0c
     9f8:	23 22       	and	r2, r19
     9fa:	3c 84       	ldd	r3, Y+12	; 0x0c
     9fc:	9f 20       	and	r9, r15
     9fe:	d8 83       	st	Y, r29
     a00:	19 1f       	adc	r17, r25
     a02:	78 83       	st	Y, r23
     a04:	93 1d       	adc	r25, r3
     a06:	1e 83       	std	Y+6, r17	; 0x06
     a08:	0b 1c       	adc	r0, r11
     a0a:	c8 82       	st	Y, r12
     a0c:	82 1a       	sub	r8, r18
     a0e:	77 82       	std	Z+7, r7	; 0x07
     a10:	f8 18       	sub	r15, r8
     a12:	2b 82       	std	Y+3, r2	; 0x03
     a14:	6d 17       	cp	r22, r29
     a16:	e4 81       	ldd	r30, Z+4	; 0x04
     a18:	e1 15       	cp	r30, r1
     a1a:	a2 81       	ldd	r26, Z+2	; 0x02
     a1c:	55 14       	cp	r5, r5
     a1e:	64 81       	ldd	r22, Z+4	; 0x04
     a20:	c7 12       	cpse	r12, r23
     a22:	2c 81       	ldd	r18, Y+4	; 0x04
     a24:	39 11       	cpse	r19, r9
     a26:	f8 80       	ld	r15, Y
     a28:	ab 0f       	add	r26, r27
     a2a:	c9 80       	ldd	r12, Y+1	; 0x01
     a2c:	1b 0e       	add	r1, r27
     a2e:	9f 80       	ldd	r9, Y+7	; 0x07
     a30:	8b 0c       	add	r8, r11
     a32:	7a 80       	ldd	r7, Y+2	; 0x02
     a34:	fb 0a       	sbc	r15, r27
     a36:	5a 80       	ldd	r5, Y+2	; 0x02
     a38:	6a 09       	sbc	r22, r10
     a3a:	3f 80       	ldd	r3, Y+7	; 0x07
     a3c:	d9 07       	cpc	r29, r25
     a3e:	29 80       	ldd	r2, Y+1	; 0x01
     a40:	47 06       	cpc	r4, r23
     a42:	18 80       	ld	r1, Y
     a44:	b6 04       	cpc	r11, r6
     a46:	0b 80       	ldd	r0, Y+3	; 0x03
     a48:	24 03       	mulsu	r18, r20
     a4a:	04 80       	ldd	r0, Z+4	; 0x04
     a4c:	92 01       	movw	r18, r4

00000a4e <tbl_bitrev>:
     a4e:	00 00       	nop
     a50:	00 04       	cpc	r0, r0
     a52:	00 02       	muls	r16, r16
     a54:	00 06       	cpc	r0, r16
     a56:	00 01       	movw	r0, r0
     a58:	00 05       	cpc	r16, r0
     a5a:	00 03       	mulsu	r16, r16
     a5c:	00 07       	cpc	r16, r16
     a5e:	80 00       	.word	0x0080	; ????
     a60:	80 04       	cpc	r8, r0
     a62:	80 02       	muls	r24, r16
     a64:	80 06       	cpc	r8, r16
     a66:	80 01       	movw	r16, r0
     a68:	80 05       	cpc	r24, r0
     a6a:	80 03       	fmuls	r16, r16
     a6c:	80 07       	cpc	r24, r16
     a6e:	40 00       	.word	0x0040	; ????
     a70:	40 04       	cpc	r4, r0
     a72:	40 02       	muls	r20, r16
     a74:	40 06       	cpc	r4, r16
     a76:	40 01       	movw	r8, r0
     a78:	40 05       	cpc	r20, r0
     a7a:	40 03       	mulsu	r20, r16
     a7c:	40 07       	cpc	r20, r16
     a7e:	c0 00       	.word	0x00c0	; ????
     a80:	c0 04       	cpc	r12, r0
     a82:	c0 02       	muls	r28, r16
     a84:	c0 06       	cpc	r12, r16
     a86:	c0 01       	movw	r24, r0
     a88:	c0 05       	cpc	r28, r0
     a8a:	c0 03       	fmuls	r20, r16
     a8c:	c0 07       	cpc	r28, r16
     a8e:	20 00       	.word	0x0020	; ????
     a90:	20 04       	cpc	r2, r0
     a92:	20 02       	muls	r18, r16
     a94:	20 06       	cpc	r2, r16
     a96:	20 01       	movw	r4, r0
     a98:	20 05       	cpc	r18, r0
     a9a:	20 03       	mulsu	r18, r16
     a9c:	20 07       	cpc	r18, r16
     a9e:	a0 00       	.word	0x00a0	; ????
     aa0:	a0 04       	cpc	r10, r0
     aa2:	a0 02       	muls	r26, r16
     aa4:	a0 06       	cpc	r10, r16
     aa6:	a0 01       	movw	r20, r0
     aa8:	a0 05       	cpc	r26, r0
     aaa:	a0 03       	fmuls	r18, r16
     aac:	a0 07       	cpc	r26, r16
     aae:	60 00       	.word	0x0060	; ????
     ab0:	60 04       	cpc	r6, r0
     ab2:	60 02       	muls	r22, r16
     ab4:	60 06       	cpc	r6, r16
     ab6:	60 01       	movw	r12, r0
     ab8:	60 05       	cpc	r22, r0
     aba:	60 03       	mulsu	r22, r16
     abc:	60 07       	cpc	r22, r16
     abe:	e0 00       	.word	0x00e0	; ????
     ac0:	e0 04       	cpc	r14, r0
     ac2:	e0 02       	muls	r30, r16
     ac4:	e0 06       	cpc	r14, r16
     ac6:	e0 01       	movw	r28, r0
     ac8:	e0 05       	cpc	r30, r0
     aca:	e0 03       	fmuls	r22, r16
     acc:	e0 07       	cpc	r30, r16
     ace:	10 00       	.word	0x0010	; ????
     ad0:	10 04       	cpc	r1, r0
     ad2:	10 02       	muls	r17, r16
     ad4:	10 06       	cpc	r1, r16
     ad6:	10 01       	movw	r2, r0
     ad8:	10 05       	cpc	r17, r0
     ada:	10 03       	mulsu	r17, r16
     adc:	10 07       	cpc	r17, r16
     ade:	90 00       	.word	0x0090	; ????
     ae0:	90 04       	cpc	r9, r0
     ae2:	90 02       	muls	r25, r16
     ae4:	90 06       	cpc	r9, r16
     ae6:	90 01       	movw	r18, r0
     ae8:	90 05       	cpc	r25, r0
     aea:	90 03       	fmuls	r17, r16
     aec:	90 07       	cpc	r25, r16
     aee:	50 00       	.word	0x0050	; ????
     af0:	50 04       	cpc	r5, r0
     af2:	50 02       	muls	r21, r16
     af4:	50 06       	cpc	r5, r16
     af6:	50 01       	movw	r10, r0
     af8:	50 05       	cpc	r21, r0
     afa:	50 03       	mulsu	r21, r16
     afc:	50 07       	cpc	r21, r16
     afe:	d0 00       	.word	0x00d0	; ????
     b00:	d0 04       	cpc	r13, r0
     b02:	d0 02       	muls	r29, r16
     b04:	d0 06       	cpc	r13, r16
     b06:	d0 01       	movw	r26, r0
     b08:	d0 05       	cpc	r29, r0
     b0a:	d0 03       	fmuls	r21, r16
     b0c:	d0 07       	cpc	r29, r16
     b0e:	30 00       	.word	0x0030	; ????
     b10:	30 04       	cpc	r3, r0
     b12:	30 02       	muls	r19, r16
     b14:	30 06       	cpc	r3, r16
     b16:	30 01       	movw	r6, r0
     b18:	30 05       	cpc	r19, r0
     b1a:	30 03       	mulsu	r19, r16
     b1c:	30 07       	cpc	r19, r16
     b1e:	b0 00       	.word	0x00b0	; ????
     b20:	b0 04       	cpc	r11, r0
     b22:	b0 02       	muls	r27, r16
     b24:	b0 06       	cpc	r11, r16
     b26:	b0 01       	movw	r22, r0
     b28:	b0 05       	cpc	r27, r0
     b2a:	b0 03       	fmuls	r19, r16
     b2c:	b0 07       	cpc	r27, r16
     b2e:	70 00       	.word	0x0070	; ????
     b30:	70 04       	cpc	r7, r0
     b32:	70 02       	muls	r23, r16
     b34:	70 06       	cpc	r7, r16
     b36:	70 01       	movw	r14, r0
     b38:	70 05       	cpc	r23, r0
     b3a:	70 03       	mulsu	r23, r16
     b3c:	70 07       	cpc	r23, r16
     b3e:	f0 00       	.word	0x00f0	; ????
     b40:	f0 04       	cpc	r15, r0
     b42:	f0 02       	muls	r31, r16
     b44:	f0 06       	cpc	r15, r16
     b46:	f0 01       	movw	r30, r0
     b48:	f0 05       	cpc	r31, r0
     b4a:	f0 03       	fmuls	r23, r16
     b4c:	f0 07       	cpc	r31, r16
     b4e:	08 00       	.word	0x0008	; ????
     b50:	08 04       	cpc	r0, r8
     b52:	08 02       	muls	r16, r24
     b54:	08 06       	cpc	r0, r24
     b56:	08 01       	movw	r0, r16
     b58:	08 05       	cpc	r16, r8
     b5a:	08 03       	fmul	r16, r16
     b5c:	08 07       	cpc	r16, r24
     b5e:	88 00       	.word	0x0088	; ????
     b60:	88 04       	cpc	r8, r8
     b62:	88 02       	muls	r24, r24
     b64:	88 06       	cpc	r8, r24
     b66:	88 01       	movw	r16, r16
     b68:	88 05       	cpc	r24, r8
     b6a:	88 03       	fmulsu	r16, r16
     b6c:	88 07       	cpc	r24, r24
     b6e:	48 00       	.word	0x0048	; ????
     b70:	48 04       	cpc	r4, r8
     b72:	48 02       	muls	r20, r24
     b74:	48 06       	cpc	r4, r24
     b76:	48 01       	movw	r8, r16
     b78:	48 05       	cpc	r20, r8
     b7a:	48 03       	fmul	r20, r16
     b7c:	48 07       	cpc	r20, r24
     b7e:	c8 00       	.word	0x00c8	; ????
     b80:	c8 04       	cpc	r12, r8
     b82:	c8 02       	muls	r28, r24
     b84:	c8 06       	cpc	r12, r24
     b86:	c8 01       	movw	r24, r16
     b88:	c8 05       	cpc	r28, r8
     b8a:	c8 03       	fmulsu	r20, r16
     b8c:	c8 07       	cpc	r28, r24
     b8e:	28 00       	.word	0x0028	; ????
     b90:	28 04       	cpc	r2, r8
     b92:	28 02       	muls	r18, r24
     b94:	28 06       	cpc	r2, r24
     b96:	28 01       	movw	r4, r16
     b98:	28 05       	cpc	r18, r8
     b9a:	28 03       	fmul	r18, r16
     b9c:	28 07       	cpc	r18, r24
     b9e:	a8 00       	.word	0x00a8	; ????
     ba0:	a8 04       	cpc	r10, r8
     ba2:	a8 02       	muls	r26, r24
     ba4:	a8 06       	cpc	r10, r24
     ba6:	a8 01       	movw	r20, r16
     ba8:	a8 05       	cpc	r26, r8
     baa:	a8 03       	fmulsu	r18, r16
     bac:	a8 07       	cpc	r26, r24
     bae:	68 00       	.word	0x0068	; ????
     bb0:	68 04       	cpc	r6, r8
     bb2:	68 02       	muls	r22, r24
     bb4:	68 06       	cpc	r6, r24
     bb6:	68 01       	movw	r12, r16
     bb8:	68 05       	cpc	r22, r8
     bba:	68 03       	fmul	r22, r16
     bbc:	68 07       	cpc	r22, r24
     bbe:	e8 00       	.word	0x00e8	; ????
     bc0:	e8 04       	cpc	r14, r8
     bc2:	e8 02       	muls	r30, r24
     bc4:	e8 06       	cpc	r14, r24
     bc6:	e8 01       	movw	r28, r16
     bc8:	e8 05       	cpc	r30, r8
     bca:	e8 03       	fmulsu	r22, r16
     bcc:	e8 07       	cpc	r30, r24
     bce:	18 00       	.word	0x0018	; ????
     bd0:	18 04       	cpc	r1, r8
     bd2:	18 02       	muls	r17, r24
     bd4:	18 06       	cpc	r1, r24
     bd6:	18 01       	movw	r2, r16
     bd8:	18 05       	cpc	r17, r8
     bda:	18 03       	fmul	r17, r16
     bdc:	18 07       	cpc	r17, r24
     bde:	98 00       	.word	0x0098	; ????
     be0:	98 04       	cpc	r9, r8
     be2:	98 02       	muls	r25, r24
     be4:	98 06       	cpc	r9, r24
     be6:	98 01       	movw	r18, r16
     be8:	98 05       	cpc	r25, r8
     bea:	98 03       	fmulsu	r17, r16
     bec:	98 07       	cpc	r25, r24
     bee:	58 00       	.word	0x0058	; ????
     bf0:	58 04       	cpc	r5, r8
     bf2:	58 02       	muls	r21, r24
     bf4:	58 06       	cpc	r5, r24
     bf6:	58 01       	movw	r10, r16
     bf8:	58 05       	cpc	r21, r8
     bfa:	58 03       	fmul	r21, r16
     bfc:	58 07       	cpc	r21, r24
     bfe:	d8 00       	.word	0x00d8	; ????
     c00:	d8 04       	cpc	r13, r8
     c02:	d8 02       	muls	r29, r24
     c04:	d8 06       	cpc	r13, r24
     c06:	d8 01       	movw	r26, r16
     c08:	d8 05       	cpc	r29, r8
     c0a:	d8 03       	fmulsu	r21, r16
     c0c:	d8 07       	cpc	r29, r24
     c0e:	38 00       	.word	0x0038	; ????
     c10:	38 04       	cpc	r3, r8
     c12:	38 02       	muls	r19, r24
     c14:	38 06       	cpc	r3, r24
     c16:	38 01       	movw	r6, r16
     c18:	38 05       	cpc	r19, r8
     c1a:	38 03       	fmul	r19, r16
     c1c:	38 07       	cpc	r19, r24
     c1e:	b8 00       	.word	0x00b8	; ????
     c20:	b8 04       	cpc	r11, r8
     c22:	b8 02       	muls	r27, r24
     c24:	b8 06       	cpc	r11, r24
     c26:	b8 01       	movw	r22, r16
     c28:	b8 05       	cpc	r27, r8
     c2a:	b8 03       	fmulsu	r19, r16
     c2c:	b8 07       	cpc	r27, r24
     c2e:	78 00       	.word	0x0078	; ????
     c30:	78 04       	cpc	r7, r8
     c32:	78 02       	muls	r23, r24
     c34:	78 06       	cpc	r7, r24
     c36:	78 01       	movw	r14, r16
     c38:	78 05       	cpc	r23, r8
     c3a:	78 03       	fmul	r23, r16
     c3c:	78 07       	cpc	r23, r24
     c3e:	f8 00       	.word	0x00f8	; ????
     c40:	f8 04       	cpc	r15, r8
     c42:	f8 02       	muls	r31, r24
     c44:	f8 06       	cpc	r15, r24
     c46:	f8 01       	movw	r30, r16
     c48:	f8 05       	cpc	r31, r8
     c4a:	f8 03       	fmulsu	r23, r16
     c4c:	f8 07       	cpc	r31, r24

00000c4e <fft_input>:
;----------------------------------------------------------------------------;
#ifndef INPUT_NOUSE
.global fft_input
.func fft_input
fft_input:
	pushw	T2H,T2L
     c4e:	3f 92       	push	r3
     c50:	2f 92       	push	r2
	pushw	AH,AL
     c52:	1f 93       	push	r17
     c54:	0f 93       	push	r16
	pushw	YH,YL
     c56:	df 93       	push	r29
     c58:	cf 93       	push	r28

	movw	XL, EL				;X = array_src;
     c5a:	dc 01       	movw	r26, r24
	movw	YL, DL				;Y = array_bfly;
     c5c:	eb 01       	movw	r28, r22
	clr	EH				;Zero
     c5e:	99 27       	eor	r25, r25
	ldiw	ZH,ZL, tbl_window		;Z = &tbl_window[0];
     c60:	ee e4       	ldi	r30, 0x4E	; 78
     c62:	f2 e0       	ldi	r31, 0x02	; 2
	ldiw	AH,AL, FFT_N			;A = FFT_N;
     c64:	00 e0       	ldi	r16, 0x00	; 0
     c66:	12 e0       	ldi	r17, 0x02	; 2
1:	lpmw	BH,BL, Z+			;B = *Z++; (window)
     c68:	25 91       	lpm	r18, Z+
     c6a:	35 91       	lpm	r19, Z+
	ldw	CH,CL, X+			;C = *X++; (I-axis)
     c6c:	4d 91       	ld	r20, X+
     c6e:	5d 91       	ld	r21, X+
	FMULS16	DH,DL,T2H,T2L, BH,BL, CH,CL	;D = B * C;
     c70:	b5 03       	fmuls	r19, r21
     c72:	b0 01       	movw	r22, r0
     c74:	2c 03       	fmul	r18, r20
     c76:	10 01       	movw	r2, r0
     c78:	69 1f       	adc	r22, r25
     c7a:	bc 03       	fmulsu	r19, r20
     c7c:	79 0b       	sbc	r23, r25
     c7e:	30 0c       	add	r3, r0
     c80:	61 1d       	adc	r22, r1
     c82:	79 1f       	adc	r23, r25
     c84:	da 03       	fmulsu	r21, r18
     c86:	79 0b       	sbc	r23, r25
     c88:	30 0c       	add	r3, r0
     c8a:	61 1d       	adc	r22, r1
     c8c:	79 1f       	adc	r23, r25
	stw	Y+, DH,DL			;*Y++ = D;
     c8e:	69 93       	st	Y+, r22
     c90:	79 93       	st	Y+, r23
#ifdef INPUT_IQ
	ldw	CH,CL, X+			;C = *X++; (Q-axis)
	FMULS16	DH,DL,T2H,T2L, BH,BL, CH,CL	;D = B * C;
#endif
	stw	Y+, DH,DL			;*Y++ = D;
     c92:	69 93       	st	Y+, r22
     c94:	79 93       	st	Y+, r23
	subiw	AH,AL, 1			;while(--A)
     c96:	01 50       	subi	r16, 0x01	; 1
     c98:	10 40       	sbci	r17, 0x00	; 0
	brne	1b				;/
     c9a:	31 f7       	brne	.-52     	; 0xc68 <fft_input+0x1a>

	popw	YH,YL
     c9c:	cf 91       	pop	r28
     c9e:	df 91       	pop	r29
	popw	AH,AL
     ca0:	0f 91       	pop	r16
     ca2:	1f 91       	pop	r17
	popw	T2H,T2L
     ca4:	2f 90       	pop	r2
     ca6:	3f 90       	pop	r3
	clr	r1
     ca8:	11 24       	eor	r1, r1
	ret
     caa:	08 95       	ret

00000cac <fft_execute>:

;----------------------------------------------------------------------------;
.global fft_execute
.func fft_execute
fft_execute:
	pushw	T2H,T2L
     cac:	3f 92       	push	r3
     cae:	2f 92       	push	r2
	pushw	T4H,T4L
     cb0:	5f 92       	push	r5
     cb2:	4f 92       	push	r4
	pushw	T6H,T6L
     cb4:	7f 92       	push	r7
     cb6:	6f 92       	push	r6
	pushw	T8H,T8L
     cb8:	9f 92       	push	r9
     cba:	8f 92       	push	r8
	pushw	T10H,T10L
     cbc:	bf 92       	push	r11
     cbe:	af 92       	push	r10
	pushw	T12H,T12L
     cc0:	df 92       	push	r13
     cc2:	cf 92       	push	r12
	pushw	T14H,T14L
     cc4:	ff 92       	push	r15
     cc6:	ef 92       	push	r14
	pushw	AH,AL
     cc8:	1f 93       	push	r17
     cca:	0f 93       	push	r16
	pushw	YH,YL
     ccc:	df 93       	push	r29
     cce:	cf 93       	push	r28

	movw	ZL, EL				;Z = array_bfly;
     cd0:	fc 01       	movw	r30, r24
	ldiw	EH,EL, 1			;E = 1;
     cd2:	81 e0       	ldi	r24, 0x01	; 1
     cd4:	90 e0       	ldi	r25, 0x00	; 0
	ldiw	XH,XL, FFT_N/2			;X = FFT_N/2;
     cd6:	a0 e0       	ldi	r26, 0x00	; 0
     cd8:	b1 e0       	ldi	r27, 0x01	; 1
1:	ldi	AL, 4				;T12 = E; (angular speed)
     cda:	04 e0       	ldi	r16, 0x04	; 4
	mul	EL, AL				;
     cdc:	80 9f       	mul	r24, r16
	movw	T12L, T0L			;
     cde:	60 01       	movw	r12, r0
	mul	EH, AL				;
     ce0:	90 9f       	mul	r25, r16
	add	T12H, T0L			;/
     ce2:	d0 0c       	add	r13, r0
	movw	T14L, EL			;T14 = E;
     ce4:	7c 01       	movw	r14, r24
	pushw	EH,EL
     ce6:	9f 93       	push	r25
     ce8:	8f 93       	push	r24
	movw	YL, ZL				;Z = &array_bfly[0];
     cea:	ef 01       	movw	r28, r30
	mul	XL, AL				;Y = &array_bfly[X];
     cec:	a0 9f       	mul	r26, r16
	addw	YH,YL, T0H,T0L			;
     cee:	c0 0d       	add	r28, r0
     cf0:	d1 1d       	adc	r29, r1
	mul	XH, AL				;
     cf2:	b0 9f       	mul	r27, r16
	add	YH, T0L				;/
     cf4:	d0 0d       	add	r29, r0
	pushw	ZH,ZL
     cf6:	ff 93       	push	r31
     cf8:	ef 93       	push	r30
2:	clrw	T10H,T10L			;T10 = 0 (angle)
     cfa:	bb 24       	eor	r11, r11
     cfc:	aa 24       	eor	r10, r10
	clr	EH				;Zero reg.
     cfe:	99 27       	eor	r25, r25
3:	lddw	AH,AL, Z+0			;A = *Z - *Y; *Z++ += *Y;
     d00:	00 81       	ld	r16, Z
     d02:	11 81       	ldd	r17, Z+1	; 0x01
	asrw	AH,AL				;
     d04:	15 95       	asr	r17
     d06:	07 95       	ror	r16
	lddw	DH,DL, Y+0			;
     d08:	68 81       	ld	r22, Y
     d0a:	79 81       	ldd	r23, Y+1	; 0x01
	asrw	DH,DL				;
     d0c:	75 95       	asr	r23
     d0e:	67 95       	ror	r22
	movw	CL, AL				;
     d10:	a8 01       	movw	r20, r16
	subw	AH,AL, DH,DL			;
     d12:	06 1b       	sub	r16, r22
     d14:	17 0b       	sbc	r17, r23
	addw	CH,CL, DH,DL			;
     d16:	46 0f       	add	r20, r22
     d18:	57 1f       	adc	r21, r23
	stw	Z+, CH,CL			;/
     d1a:	41 93       	st	Z+, r20
     d1c:	51 93       	st	Z+, r21
	lddw	BH,BL, Z+0			;B = *Z - *Y; *Z++ += *Y;
     d1e:	20 81       	ld	r18, Z
     d20:	31 81       	ldd	r19, Z+1	; 0x01
	asrw	BH,BL				;
     d22:	35 95       	asr	r19
     d24:	27 95       	ror	r18
	lddw	DH,DL, Y+2			;
     d26:	6a 81       	ldd	r22, Y+2	; 0x02
     d28:	7b 81       	ldd	r23, Y+3	; 0x03
	asrw	DH,DL				;
     d2a:	75 95       	asr	r23
     d2c:	67 95       	ror	r22
	movw	CL, BL				;
     d2e:	a9 01       	movw	r20, r18
	subw	BH,BL, DH,DL			;
     d30:	26 1b       	sub	r18, r22
     d32:	37 0b       	sbc	r19, r23
	addw	CH,CL, DH,DL			;
     d34:	46 0f       	add	r20, r22
     d36:	57 1f       	adc	r21, r23
	stw	Z+, CH,CL			;/
     d38:	41 93       	st	Z+, r20
     d3a:	51 93       	st	Z+, r21
	movw	T0L, ZL
     d3c:	0f 01       	movw	r0, r30
	ldiw	ZH,ZL, tbl_cos_sin		;C = cos(T10); D = sin(T10);
     d3e:	ee e4       	ldi	r30, 0x4E	; 78
     d40:	f6 e0       	ldi	r31, 0x06	; 6
	addw	ZH,ZL, T10H,T10L		;
     d42:	ea 0d       	add	r30, r10
     d44:	fb 1d       	adc	r31, r11
	lpmw	CH,CL, Z+			;
     d46:	45 91       	lpm	r20, Z+
     d48:	55 91       	lpm	r21, Z+
	lpmw	DH,DL, Z+			;/
     d4a:	65 91       	lpm	r22, Z+
     d4c:	75 91       	lpm	r23, Z+
	movw	ZL, T0L
     d4e:	f0 01       	movw	r30, r0
	FMULS16	T4H,T4L,T2H,T2L, AH,AL, CH,CL	;*Y++ = A * C + B * D;
     d50:	95 03       	fmuls	r17, r21
     d52:	20 01       	movw	r4, r0
     d54:	0c 03       	fmul	r16, r20
     d56:	10 01       	movw	r2, r0
     d58:	49 1e       	adc	r4, r25
     d5a:	9c 03       	fmulsu	r17, r20
     d5c:	59 0a       	sbc	r5, r25
     d5e:	30 0c       	add	r3, r0
     d60:	41 1c       	adc	r4, r1
     d62:	59 1e       	adc	r5, r25
     d64:	d8 03       	fmulsu	r21, r16
     d66:	59 0a       	sbc	r5, r25
     d68:	30 0c       	add	r3, r0
     d6a:	41 1c       	adc	r4, r1
     d6c:	59 1e       	adc	r5, r25
	FMULS16	T8H,T8L,T6H,T6L, BH,BL, DH,DL	;
     d6e:	b7 03       	fmuls	r19, r23
     d70:	40 01       	movw	r8, r0
     d72:	2e 03       	fmul	r18, r22
     d74:	30 01       	movw	r6, r0
     d76:	89 1e       	adc	r8, r25
     d78:	be 03       	fmulsu	r19, r22
     d7a:	99 0a       	sbc	r9, r25
     d7c:	70 0c       	add	r7, r0
     d7e:	81 1c       	adc	r8, r1
     d80:	99 1e       	adc	r9, r25
     d82:	fa 03       	fmulsu	r23, r18
     d84:	99 0a       	sbc	r9, r25
     d86:	70 0c       	add	r7, r0
     d88:	81 1c       	adc	r8, r1
     d8a:	99 1e       	adc	r9, r25
	addd	T4H,T4L,T2H,T2L, T8H,T8L,T6H,T6L;
     d8c:	26 0c       	add	r2, r6
     d8e:	37 1c       	adc	r3, r7
     d90:	48 1c       	adc	r4, r8
     d92:	59 1c       	adc	r5, r9
	stw	Y+, T4H,T4L			;/
     d94:	49 92       	st	Y+, r4
     d96:	59 92       	st	Y+, r5
	FMULS16	T4H,T4L,T2H,T2L, BH,BL, CH,CL 	;*Y++ = B * C - A * D;
     d98:	b5 03       	fmuls	r19, r21
     d9a:	20 01       	movw	r4, r0
     d9c:	2c 03       	fmul	r18, r20
     d9e:	10 01       	movw	r2, r0
     da0:	49 1e       	adc	r4, r25
     da2:	bc 03       	fmulsu	r19, r20
     da4:	59 0a       	sbc	r5, r25
     da6:	30 0c       	add	r3, r0
     da8:	41 1c       	adc	r4, r1
     daa:	59 1e       	adc	r5, r25
     dac:	da 03       	fmulsu	r21, r18
     dae:	59 0a       	sbc	r5, r25
     db0:	30 0c       	add	r3, r0
     db2:	41 1c       	adc	r4, r1
     db4:	59 1e       	adc	r5, r25
	FMULS16	T8H,T8L,T6H,T6L, AH,AL, DH,DL 	;
     db6:	97 03       	fmuls	r17, r23
     db8:	40 01       	movw	r8, r0
     dba:	0e 03       	fmul	r16, r22
     dbc:	30 01       	movw	r6, r0
     dbe:	89 1e       	adc	r8, r25
     dc0:	9e 03       	fmulsu	r17, r22
     dc2:	99 0a       	sbc	r9, r25
     dc4:	70 0c       	add	r7, r0
     dc6:	81 1c       	adc	r8, r1
     dc8:	99 1e       	adc	r9, r25
     dca:	f8 03       	fmulsu	r23, r16
     dcc:	99 0a       	sbc	r9, r25
     dce:	70 0c       	add	r7, r0
     dd0:	81 1c       	adc	r8, r1
     dd2:	99 1e       	adc	r9, r25
	subd	T4H,T4L,T2H,T2L, T8H,T8L,T6H,T6L;
     dd4:	26 18       	sub	r2, r6
     dd6:	37 08       	sbc	r3, r7
     dd8:	48 08       	sbc	r4, r8
     dda:	59 08       	sbc	r5, r9
	stw	Y+, T4H,T4L			;/
     ddc:	49 92       	st	Y+, r4
     dde:	59 92       	st	Y+, r5
	addw	T10H,T10L, T12H,T12L		;T10 += T12; (next angle)
     de0:	ac 0c       	add	r10, r12
     de2:	bd 1c       	adc	r11, r13
#if FFT_N >= 128
	sbrs	T10H, FFT_B - 7			;while(T10 < pi)
     de4:	b2 fe       	sbrs	r11, 2
#else
	sbrs	T10L, FFT_B + 1
#endif
	rjmp	3b				;/
     de6:	8c cf       	rjmp	.-232    	; 0xd00 <fft_execute+0x54>
	ldi	AL, 4				;Y += X; Z += X; (skip split segment)
     de8:	04 e0       	ldi	r16, 0x04	; 4
	mul	XL, AL
     dea:	a0 9f       	mul	r26, r16
	addw	YH,YL, T0H,T0L			;
     dec:	c0 0d       	add	r28, r0
     dee:	d1 1d       	adc	r29, r1
	addw	ZH,ZL, T0H,T0L			;
     df0:	e0 0d       	add	r30, r0
     df2:	f1 1d       	adc	r31, r1
	mul	XH, AL				;
     df4:	b0 9f       	mul	r27, r16
	add	YH, T0L				;
     df6:	d0 0d       	add	r29, r0
	add	ZH, T0L				;/
     df8:	f0 0d       	add	r31, r0
	ldi	EL, 1				;while(--T14)
     dfa:	81 e0       	ldi	r24, 0x01	; 1
	subw	T14H,T14L, EH,EL		;
     dfc:	e8 1a       	sub	r14, r24
     dfe:	f9 0a       	sbc	r15, r25
	rjne	2b				;/
     e00:	09 f0       	breq	.+2      	; 0xe04 <fft_execute+0x158>
     e02:	7b cf       	rjmp	.-266    	; 0xcfa <fft_execute+0x4e>
	popw	ZH,ZL
     e04:	ef 91       	pop	r30
     e06:	ff 91       	pop	r31
	popw	EH,EL
     e08:	8f 91       	pop	r24
     e0a:	9f 91       	pop	r25
	lslw	EH,EL				;E *= 2;
     e0c:	88 0f       	add	r24, r24
     e0e:	99 1f       	adc	r25, r25
	lsrw	XH,XL				;while(X /= 2)
     e10:	b6 95       	lsr	r27
     e12:	a7 95       	ror	r26
	adiw	XL, 0				;
     e14:	10 96       	adiw	r26, 0x00	; 0
	rjne	1b				;/
     e16:	09 f0       	breq	.+2      	; 0xe1a <fft_execute+0x16e>
     e18:	60 cf       	rjmp	.-320    	; 0xcda <fft_execute+0x2e>

	popw	YH,YL
     e1a:	cf 91       	pop	r28
     e1c:	df 91       	pop	r29
	popw	AH,AL
     e1e:	0f 91       	pop	r16
     e20:	1f 91       	pop	r17
	popw	T14H,T14L
     e22:	ef 90       	pop	r14
     e24:	ff 90       	pop	r15
	popw	T12H,T12L
     e26:	cf 90       	pop	r12
     e28:	df 90       	pop	r13
	popw	T10H,T10L
     e2a:	af 90       	pop	r10
     e2c:	bf 90       	pop	r11
	popw	T8H,T8L
     e2e:	8f 90       	pop	r8
     e30:	9f 90       	pop	r9
	popw	T6H,T6L
     e32:	6f 90       	pop	r6
     e34:	7f 90       	pop	r7
	popw	T4H,T4L
     e36:	4f 90       	pop	r4
     e38:	5f 90       	pop	r5
	popw	T2H,T2L
     e3a:	2f 90       	pop	r2
     e3c:	3f 90       	pop	r3
;	clr	r1
	ret
     e3e:	08 95       	ret

00000e40 <fft_output>:

;----------------------------------------------------------------------------;
.global fft_output
.func fft_output
fft_output:
	pushw	T2H,T2L
     e40:	3f 92       	push	r3
     e42:	2f 92       	push	r2
	pushw	T4H,T4L
     e44:	5f 92       	push	r5
     e46:	4f 92       	push	r4
	pushw	T6H,T6L
     e48:	7f 92       	push	r7
     e4a:	6f 92       	push	r6
	pushw	T8H,T8L
     e4c:	9f 92       	push	r9
     e4e:	8f 92       	push	r8
	pushw	T10H,T10L
     e50:	bf 92       	push	r11
     e52:	af 92       	push	r10
	pushw	AH,AL
     e54:	1f 93       	push	r17
     e56:	0f 93       	push	r16
	pushw	YH,YL
     e58:	df 93       	push	r29
     e5a:	cf 93       	push	r28

	movw	T10L, EL			;T10 = array_bfly;
     e5c:	5c 01       	movw	r10, r24
	movw	YL, DL				;Y = array_output;
     e5e:	eb 01       	movw	r28, r22
	ldiw	ZH,ZL, tbl_bitrev		;Z = tbl_bitrev;
     e60:	ee e4       	ldi	r30, 0x4E	; 78
     e62:	fa e0       	ldi	r31, 0x0A	; 10
	clr	EH				;Zero
     e64:	99 27       	eor	r25, r25
#ifdef INPUT_IQ
	ldiw	AH,AL, FFT_N			;A = FFT_N; (plus/minus)
#else
	ldiw	AH,AL, FFT_N / 2		;A = FFT_N / 2; (plus only)
     e66:	00 e0       	ldi	r16, 0x00	; 0
     e68:	11 e0       	ldi	r17, 0x01	; 1
#endif
1:	lpmw	XH,XL, Z+			;X = *Z++;
     e6a:	a5 91       	lpm	r26, Z+
     e6c:	b5 91       	lpm	r27, Z+
	addw	XH,XL, T10H,T10L		;X += array_bfly;
     e6e:	aa 0d       	add	r26, r10
     e70:	bb 1d       	adc	r27, r11
	ldw	BH,BL, X+			;B = *X++;
     e72:	2d 91       	ld	r18, X+
     e74:	3d 91       	ld	r19, X+
	ldw	CH,CL, X+			;C = *X++;
     e76:	4d 91       	ld	r20, X+
     e78:	5d 91       	ld	r21, X+
	FMULS16	T4H,T4L,T2H,T2L, BH,BL, BH,BL	;T4:T2 = B * B;
     e7a:	b3 03       	fmuls	r19, r19
     e7c:	20 01       	movw	r4, r0
     e7e:	2a 03       	fmul	r18, r18
     e80:	10 01       	movw	r2, r0
     e82:	49 1e       	adc	r4, r25
     e84:	ba 03       	fmulsu	r19, r18
     e86:	59 0a       	sbc	r5, r25
     e88:	30 0c       	add	r3, r0
     e8a:	41 1c       	adc	r4, r1
     e8c:	59 1e       	adc	r5, r25
     e8e:	ba 03       	fmulsu	r19, r18
     e90:	59 0a       	sbc	r5, r25
     e92:	30 0c       	add	r3, r0
     e94:	41 1c       	adc	r4, r1
     e96:	59 1e       	adc	r5, r25
	FMULS16	T8H,T8L,T6H,T6L, CH,CL, CH,CL	;T8:T6 = C * C;
     e98:	d5 03       	fmuls	r21, r21
     e9a:	40 01       	movw	r8, r0
     e9c:	4c 03       	fmul	r20, r20
     e9e:	30 01       	movw	r6, r0
     ea0:	89 1e       	adc	r8, r25
     ea2:	dc 03       	fmulsu	r21, r20
     ea4:	99 0a       	sbc	r9, r25
     ea6:	70 0c       	add	r7, r0
     ea8:	81 1c       	adc	r8, r1
     eaa:	99 1e       	adc	r9, r25
     eac:	dc 03       	fmulsu	r21, r20
     eae:	99 0a       	sbc	r9, r25
     eb0:	70 0c       	add	r7, r0
     eb2:	81 1c       	adc	r8, r1
     eb4:	99 1e       	adc	r9, r25
	addd	T4H,T4L,T2H,T2L, T8H,T8L,T6H,T6L;T4:T2 += T8:T6;
     eb6:	26 0c       	add	r2, r6
     eb8:	37 1c       	adc	r3, r7
     eba:	48 1c       	adc	r4, r8
     ebc:	59 1c       	adc	r5, r9
	SQRT32					;B = sqrt(T4:T2);
     ebe:	66 24       	eor	r6, r6
     ec0:	77 24       	eor	r7, r7
     ec2:	88 24       	eor	r8, r8
     ec4:	99 24       	eor	r9, r9
     ec6:	21 e0       	ldi	r18, 0x01	; 1
     ec8:	30 e0       	ldi	r19, 0x00	; 0
     eca:	44 27       	eor	r20, r20
     ecc:	55 27       	eor	r21, r21
     ece:	70 e1       	ldi	r23, 0x10	; 16
     ed0:	22 0c       	add	r2, r2
     ed2:	33 1c       	adc	r3, r3
     ed4:	44 1c       	adc	r4, r4
     ed6:	55 1c       	adc	r5, r5
     ed8:	66 1c       	adc	r6, r6
     eda:	77 1c       	adc	r7, r7
     edc:	88 1c       	adc	r8, r8
     ede:	99 1c       	adc	r9, r9
     ee0:	22 0c       	add	r2, r2
     ee2:	33 1c       	adc	r3, r3
     ee4:	44 1c       	adc	r4, r4
     ee6:	55 1c       	adc	r5, r5
     ee8:	66 1c       	adc	r6, r6
     eea:	77 1c       	adc	r7, r7
     eec:	88 1c       	adc	r8, r8
     eee:	99 1c       	adc	r9, r9
     ef0:	2a f4       	brpl	.+10     	; 0xefc <fft_output+0xbc>
     ef2:	62 0e       	add	r6, r18
     ef4:	73 1e       	adc	r7, r19
     ef6:	84 1e       	adc	r8, r20
     ef8:	95 1e       	adc	r9, r21
     efa:	04 c0       	rjmp	.+8      	; 0xf04 <fft_output+0xc4>
     efc:	62 1a       	sub	r6, r18
     efe:	73 0a       	sbc	r7, r19
     f00:	84 0a       	sbc	r8, r20
     f02:	95 0a       	sbc	r9, r21
     f04:	22 0f       	add	r18, r18
     f06:	33 1f       	adc	r19, r19
     f08:	44 1f       	adc	r20, r20
     f0a:	28 7f       	andi	r18, 0xF8	; 248
     f0c:	25 60       	ori	r18, 0x05	; 5
     f0e:	97 fc       	sbrc	r9, 7
     f10:	22 50       	subi	r18, 0x02	; 2
     f12:	7a 95       	dec	r23
     f14:	e9 f6       	brne	.-70     	; 0xed0 <fft_output+0x90>
     f16:	46 95       	lsr	r20
     f18:	37 95       	ror	r19
     f1a:	27 95       	ror	r18
     f1c:	46 95       	lsr	r20
     f1e:	37 95       	ror	r19
     f20:	27 95       	ror	r18
	stw	Y+, BH,BL			;*Y++ = B;
     f22:	29 93       	st	Y+, r18
     f24:	39 93       	st	Y+, r19
	subiw	AH,AL, 1			;while(--A)
     f26:	01 50       	subi	r16, 0x01	; 1
     f28:	10 40       	sbci	r17, 0x00	; 0
	rjne	1b				;/
     f2a:	09 f0       	breq	.+2      	; 0xf2e <fft_output+0xee>
     f2c:	9e cf       	rjmp	.-196    	; 0xe6a <fft_output+0x2a>

	popw	YH,YL
     f2e:	cf 91       	pop	r28
     f30:	df 91       	pop	r29
	popw	AH,AL
     f32:	0f 91       	pop	r16
     f34:	1f 91       	pop	r17
	popw	T10H,T10L
     f36:	af 90       	pop	r10
     f38:	bf 90       	pop	r11
	popw	T8H,T8L
     f3a:	8f 90       	pop	r8
     f3c:	9f 90       	pop	r9
	popw	T6H,T6L
     f3e:	6f 90       	pop	r6
     f40:	7f 90       	pop	r7
	popw	T4H,T4L
     f42:	4f 90       	pop	r4
     f44:	5f 90       	pop	r5
	popw	T2H,T2L
     f46:	2f 90       	pop	r2
     f48:	3f 90       	pop	r3
	clr	r1
     f4a:	11 24       	eor	r1, r1
	ret
     f4c:	08 95       	ret

00000f4e <fmuls_f>:

;----------------------------------------------------------------------------;
.global fmuls_f
.func fmuls_f
fmuls_f:
	movw	CL, EL				;C = E;
     f4e:	ac 01       	movw	r20, r24
	clr	EH	;Zero
     f50:	99 27       	eor	r25, r25
	FMULS16	ZH,ZL,XH,XL, CH,CL, DH,DL	;Z:X = C * D;
     f52:	d7 03       	fmuls	r21, r23
     f54:	f0 01       	movw	r30, r0
     f56:	4e 03       	fmul	r20, r22
     f58:	d0 01       	movw	r26, r0
     f5a:	e9 1f       	adc	r30, r25
     f5c:	de 03       	fmulsu	r21, r22
     f5e:	f9 0b       	sbc	r31, r25
     f60:	b0 0d       	add	r27, r0
     f62:	e1 1d       	adc	r30, r1
     f64:	f9 1f       	adc	r31, r25
     f66:	fc 03       	fmulsu	r23, r20
     f68:	f9 0b       	sbc	r31, r25
     f6a:	b0 0d       	add	r27, r0
     f6c:	e1 1d       	adc	r30, r1
     f6e:	f9 1f       	adc	r31, r25
	movw	EL, ZL
     f70:	cf 01       	movw	r24, r30
	clr	r1
     f72:	11 24       	eor	r1, r1
	ret
     f74:	08 95       	ret

00000f76 <Command>:
	#else
		//round up by default
		__ticks_dc = (uint32_t)(ceil(fabs(__tmp)));
	#endif

	__builtin_avr_delay_cycles(__ticks_dc);
     f76:	ef e3       	ldi	r30, 0x3F	; 63
     f78:	ff e1       	ldi	r31, 0x1F	; 31
     f7a:	31 97       	sbiw	r30, 0x01	; 1
     f7c:	f1 f7       	brne	.-4      	; 0xf7a <Command+0x4>
     f7e:	00 c0       	rjmp	.+0      	; 0xf80 <Command+0xa>
     f80:	00 00       	nop
void Command(unsigned char byte)
{
	_delay_ms(2);
	
	// Instruction high byte, light in background
	PORTC = (byte & 0xF0);    // data
     f82:	98 2f       	mov	r25, r24
     f84:	90 7f       	andi	r25, 0xF0	; 240
     f86:	95 bb       	out	0x15, r25	; 21
	PORTC &= 0xFE;        // RS = 0,mean RS=low level D0-D7 instruction code
     f88:	95 b3       	in	r25, 0x15	; 21
     f8a:	9e 7f       	andi	r25, 0xFE	; 254
     f8c:	95 bb       	out	0x15, r25	; 21
	PORTC &= 0xFD;        // RW = 0,read from AVR to LCD
     f8e:	95 b3       	in	r25, 0x15	; 21
     f90:	9d 7f       	andi	r25, 0xFD	; 253
     f92:	95 bb       	out	0x15, r25	; 21
	#else
		//round up by default
		__ticks_dc = (uint32_t)(ceil(fabs(__tmp)));
	#endif

	__builtin_avr_delay_cycles(__ticks_dc);
     f94:	f5 e0       	ldi	r31, 0x05	; 5
     f96:	fa 95       	dec	r31
     f98:	f1 f7       	brne	.-4      	; 0xf96 <Command+0x20>
     f9a:	00 00       	nop
	_delay_us(1);
	PORTC |= 0x04;        // E = 1, LCD active
     f9c:	95 b3       	in	r25, 0x15	; 21
     f9e:	94 60       	ori	r25, 0x04	; 4
     fa0:	95 bb       	out	0x15, r25	; 21
     fa2:	25 e0       	ldi	r18, 0x05	; 5
     fa4:	2a 95       	dec	r18
     fa6:	f1 f7       	brne	.-4      	; 0xfa4 <Command+0x2e>
     fa8:	00 00       	nop
	_delay_us(1);
	PORTC &= 0xFB;        // E = 0, LCD counteract
     faa:	95 b3       	in	r25, 0x15	; 21
     fac:	9b 7f       	andi	r25, 0xFB	; 251
     fae:	95 bb       	out	0x15, r25	; 21
	// chip enable signal when 1 to 0
	//Instruction low byte
	PORTC = ((byte<<4) & 0xF0);    // data
     fb0:	e0 e1       	ldi	r30, 0x10	; 16
     fb2:	8e 9f       	mul	r24, r30
     fb4:	c0 01       	movw	r24, r0
     fb6:	11 24       	eor	r1, r1
     fb8:	85 bb       	out	0x15, r24	; 21
	PORTC &= 0xFE;        // RS = 0,RS=low level D0-D7 instruction code
     fba:	85 b3       	in	r24, 0x15	; 21
     fbc:	8e 7f       	andi	r24, 0xFE	; 254
     fbe:	85 bb       	out	0x15, r24	; 21
	PORTC &= 0xFD;        // RW = 0,read from AVR to LCD
     fc0:	85 b3       	in	r24, 0x15	; 21
     fc2:	8d 7f       	andi	r24, 0xFD	; 253
     fc4:	85 bb       	out	0x15, r24	; 21
     fc6:	f5 e0       	ldi	r31, 0x05	; 5
     fc8:	fa 95       	dec	r31
     fca:	f1 f7       	brne	.-4      	; 0xfc8 <Command+0x52>
     fcc:	00 00       	nop
	_delay_us(1);
	PORTC |= 0x04;        // E = 1, LCD active
     fce:	85 b3       	in	r24, 0x15	; 21
     fd0:	84 60       	ori	r24, 0x04	; 4
     fd2:	85 bb       	out	0x15, r24	; 21
     fd4:	25 e0       	ldi	r18, 0x05	; 5
     fd6:	2a 95       	dec	r18
     fd8:	f1 f7       	brne	.-4      	; 0xfd6 <Command+0x60>
     fda:	00 00       	nop
	_delay_us(1);
	PORTC &= 0xFB;        // E = 0, LCD counteract
     fdc:	85 b3       	in	r24, 0x15	; 21
     fde:	8b 7f       	andi	r24, 0xFB	; 251
     fe0:	85 bb       	out	0x15, r24	; 21
     fe2:	08 95       	ret

00000fe4 <LCD_init>:
void Command(unsigned char);    //set light-background
void Data(unsigned char);     //converse from table of word
void LCD_clear(void) ;
void LCD_init(void)
{
	DDRC = 0xFF;    //Port C Output Settings
     fe4:	8f ef       	ldi	r24, 0xFF	; 255
     fe6:	84 bb       	out	0x14, r24	; 20
	PORTC &= 0xFB;    //E = 0;
     fe8:	85 b3       	in	r24, 0x15	; 21
     fea:	8b 7f       	andi	r24, 0xFB	; 251
     fec:	85 bb       	out	0x15, r24	; 21
	#else
		//round up by default
		__ticks_dc = (uint32_t)(ceil(fabs(__tmp)));
	#endif

	__builtin_avr_delay_cycles(__ticks_dc);
     fee:	8f e5       	ldi	r24, 0x5F	; 95
     ff0:	9a ee       	ldi	r25, 0xEA	; 234
     ff2:	01 97       	sbiw	r24, 0x01	; 1
     ff4:	f1 f7       	brne	.-4      	; 0xff2 <LCD_init+0xe>
     ff6:	00 c0       	rjmp	.+0      	; 0xff8 <LCD_init+0x14>
     ff8:	00 00       	nop
	
	// Port C Output Settings
	_delay_ms(15);
	Command(0x20);    // D5=1
     ffa:	80 e2       	ldi	r24, 0x20	; 32
     ffc:	bc df       	rcall	.-136    	; 0xf76 <Command>
     ffe:	8f e1       	ldi	r24, 0x1F	; 31
    1000:	9e e4       	ldi	r25, 0x4E	; 78
    1002:	01 97       	sbiw	r24, 0x01	; 1
    1004:	f1 f7       	brne	.-4      	; 0x1002 <__DATA_REGION_LENGTH__+0x2>
    1006:	00 c0       	rjmp	.+0      	; 0x1008 <__DATA_REGION_LENGTH__+0x8>
    1008:	00 00       	nop
	_delay_ms(5);
	Command(0x20);    // D5=1
    100a:	80 e2       	ldi	r24, 0x20	; 32
    100c:	b4 df       	rcall	.-152    	; 0xf76 <Command>
	#else
		//round up by default
		__ticks_dc = (uint32_t)(ceil(fabs(__tmp)));
	#endif

	__builtin_avr_delay_cycles(__ticks_dc);
    100e:	8f e8       	ldi	r24, 0x8F	; 143
    1010:	91 e0       	ldi	r25, 0x01	; 1
    1012:	01 97       	sbiw	r24, 0x01	; 1
    1014:	f1 f7       	brne	.-4      	; 0x1012 <__DATA_REGION_LENGTH__+0x12>
    1016:	00 c0       	rjmp	.+0      	; 0x1018 <__DATA_REGION_LENGTH__+0x18>
	_delay_us(100);
	Command(0x20);    // D5=1
    1018:	00 00       	nop
    101a:	80 e2       	ldi	r24, 0x20	; 32
	
	// Initialization process
	Command(0x28);    // function set
    101c:	ac df       	rcall	.-168    	; 0xf76 <Command>
    101e:	88 e2       	ldi	r24, 0x28	; 40
	Command(0x06);    // entry mode set
    1020:	aa df       	rcall	.-172    	; 0xf76 <Command>
    1022:	86 e0       	ldi	r24, 0x06	; 6
	Command(0x01);    // all clear
    1024:	a8 df       	rcall	.-176    	; 0xf76 <Command>
    1026:	81 e0       	ldi	r24, 0x01	; 1
    1028:	a6 df       	rcall	.-180    	; 0xf76 <Command>
	Command(0x0c);    // display on
    102a:	8c e0       	ldi	r24, 0x0C	; 12
    102c:	a4 cf       	rjmp	.-184    	; 0xf76 <Command>
    102e:	08 95       	ret

00001030 <Data>:
    1030:	ef e3       	ldi	r30, 0x3F	; 63
	#else
		//round up by default
		__ticks_dc = (uint32_t)(ceil(fabs(__tmp)));
	#endif

	__builtin_avr_delay_cycles(__ticks_dc);
    1032:	ff e1       	ldi	r31, 0x1F	; 31
    1034:	31 97       	sbiw	r30, 0x01	; 1
    1036:	f1 f7       	brne	.-4      	; 0x1034 <Data+0x4>
    1038:	00 c0       	rjmp	.+0      	; 0x103a <Data+0xa>
    103a:	00 00       	nop
}
void Data(unsigned char byte)
{
	_delay_ms(2);
	// Data high byte
	PORTC = (byte & 0xF0);    // data
    103c:	98 2f       	mov	r25, r24
    103e:	90 7f       	andi	r25, 0xF0	; 240
    1040:	95 bb       	out	0x15, r25	; 21
	PORTC |= 0x01;        //RS = 1 mean D0-D7 data
    1042:	95 b3       	in	r25, 0x15	; 21
    1044:	91 60       	ori	r25, 0x01	; 1
    1046:	95 bb       	out	0x15, r25	; 21
	PORTC &= 0xFD;        //RW = 0;
    1048:	95 b3       	in	r25, 0x15	; 21
    104a:	9d 7f       	andi	r25, 0xFD	; 253
    104c:	95 bb       	out	0x15, r25	; 21
	#else
		//round up by default
		__ticks_dc = (uint32_t)(ceil(fabs(__tmp)));
	#endif

	__builtin_avr_delay_cycles(__ticks_dc);
    104e:	f5 e0       	ldi	r31, 0x05	; 5
    1050:	fa 95       	dec	r31
    1052:	f1 f7       	brne	.-4      	; 0x1050 <Data+0x20>
    1054:	00 00       	nop
	_delay_us(1);
	PORTC |= 0x04;        //E = 1 LCD active
    1056:	95 b3       	in	r25, 0x15	; 21
    1058:	94 60       	ori	r25, 0x04	; 4
    105a:	95 bb       	out	0x15, r25	; 21
    105c:	25 e0       	ldi	r18, 0x05	; 5
    105e:	2a 95       	dec	r18
    1060:	f1 f7       	brne	.-4      	; 0x105e <Data+0x2e>
    1062:	00 00       	nop
	_delay_us(1);
	PORTC &= 0xFB;        //E = 0 LCD counteract
    1064:	95 b3       	in	r25, 0x15	; 21
    1066:	9b 7f       	andi	r25, 0xFB	; 251
    1068:	95 bb       	out	0x15, r25	; 21
	// Data low byte
	PORTC = ((byte<<4) & 0xF0);      // data
    106a:	e0 e1       	ldi	r30, 0x10	; 16
    106c:	8e 9f       	mul	r24, r30
    106e:	c0 01       	movw	r24, r0
    1070:	11 24       	eor	r1, r1
    1072:	85 bb       	out	0x15, r24	; 21
	PORTC |= 0x01;        //RS = 1 mean D0-D7 data
    1074:	85 b3       	in	r24, 0x15	; 21
    1076:	81 60       	ori	r24, 0x01	; 1
    1078:	85 bb       	out	0x15, r24	; 21
	PORTC &= 0xFD;        //RW = 0 read from AVR to LCD
    107a:	85 b3       	in	r24, 0x15	; 21
    107c:	8d 7f       	andi	r24, 0xFD	; 253
    107e:	85 bb       	out	0x15, r24	; 21
    1080:	f5 e0       	ldi	r31, 0x05	; 5
    1082:	fa 95       	dec	r31
    1084:	f1 f7       	brne	.-4      	; 0x1082 <Data+0x52>
    1086:	00 00       	nop
	_delay_us(1);
	PORTC |= 0x04;        //E = 1 LCD active
    1088:	85 b3       	in	r24, 0x15	; 21
    108a:	84 60       	ori	r24, 0x04	; 4
    108c:	85 bb       	out	0x15, r24	; 21
    108e:	25 e0       	ldi	r18, 0x05	; 5
    1090:	2a 95       	dec	r18
    1092:	f1 f7       	brne	.-4      	; 0x1090 <Data+0x60>
    1094:	00 00       	nop
	_delay_us(1);
	PORTC &= 0xFB;        //E = 0 LCD counteract
    1096:	85 b3       	in	r24, 0x15	; 21
    1098:	8b 7f       	andi	r24, 0xFB	; 251
    109a:	85 bb       	out	0x15, r24	; 21
    109c:	08 95       	ret

0000109e <LCD_display>:
	PORTC &= 0xFB;        // E = 0, LCD counteract
}


void LCD_display(char str[],char line) // display "word"
{
    109e:	1f 93       	push	r17
    10a0:	cf 93       	push	r28
    10a2:	df 93       	push	r29
    10a4:	ec 01       	movw	r28, r24
    10a6:	16 2f       	mov	r17, r22
	//Command(CLEAR);
	if(line==1) Command(LINE1);
    10a8:	61 30       	cpi	r22, 0x01	; 1
    10aa:	11 f4       	brne	.+4      	; 0x10b0 <LCD_display+0x12>
    10ac:	82 e0       	ldi	r24, 0x02	; 2
    10ae:	63 df       	rcall	.-314    	; 0xf76 <Command>
	if(line==2) Command(LINE2);
    10b0:	12 30       	cpi	r17, 0x02	; 2
    10b2:	29 f4       	brne	.+10     	; 0x10be <LCD_display+0x20>
    10b4:	80 ec       	ldi	r24, 0xC0	; 192
    10b6:	5f df       	rcall	.-322    	; 0xf76 <Command>
    10b8:	02 c0       	rjmp	.+4      	; 0x10be <LCD_display+0x20>
	char *pStr=0;
	pStr = str;// ham in ngon ma
	while(*pStr) Data(*pStr++);
    10ba:	21 96       	adiw	r28, 0x01	; 1
    10bc:	b9 df       	rcall	.-142    	; 0x1030 <Data>
    10be:	88 81       	ld	r24, Y
    10c0:	81 11       	cpse	r24, r1
    10c2:	fb cf       	rjmp	.-10     	; 0x10ba <LCD_display+0x1c>
    10c4:	df 91       	pop	r29
}
    10c6:	cf 91       	pop	r28
    10c8:	1f 91       	pop	r17
    10ca:	08 95       	ret

000010cc <LCD_clear>:
    10cc:	81 e0       	ldi	r24, 0x01	; 1
	PORTC &= 0xFB;        //E = 0 LCD counteract
}

void LCD_clear(void) // display "word"
{
	Command(CLEAR);
    10ce:	53 cf       	rjmp	.-346    	; 0xf76 <Command>
    10d0:	08 95       	ret

000010d2 <__vector_16>:


int16_t capture[FFT_N];			/* Wave captureing buffer */
complex_t bfly_buff[FFT_N];		/* FFT buffer */
uint16_t spectrum[FFT_N/2];		/* Spectrum output buffer */
ISR(TIMER0_OVF_vect){ // 
    10d2:	1f 92       	push	r1
    10d4:	0f 92       	push	r0
    10d6:	0f b6       	in	r0, 0x3f	; 63
    10d8:	0f 92       	push	r0
    10da:	11 24       	eor	r1, r1
    10dc:	2f 93       	push	r18
    10de:	8f 93       	push	r24
    10e0:	9f 93       	push	r25
	tlrks ++ ;
    10e2:	80 91 1f 01 	lds	r24, 0x011F	; 0x80011f <tlrks>
    10e6:	90 91 20 01 	lds	r25, 0x0120	; 0x800120 <tlrks+0x1>
    10ea:	01 96       	adiw	r24, 0x01	; 1
    10ec:	90 93 20 01 	sts	0x0120, r25	; 0x800120 <tlrks+0x1>
    10f0:	80 93 1f 01 	sts	0x011F, r24	; 0x80011f <tlrks>
	TCNT0 = 6;
    10f4:	86 e0       	ldi	r24, 0x06	; 6
    10f6:	82 bf       	out	0x32, r24	; 50
	if(tlrks >1000){ //1 sec = 1
    10f8:	80 91 1f 01 	lds	r24, 0x011F	; 0x80011f <tlrks>
    10fc:	90 91 20 01 	lds	r25, 0x0120	; 0x800120 <tlrks+0x1>
    1100:	89 3e       	cpi	r24, 0xE9	; 233
    1102:	93 40       	sbci	r25, 0x03	; 3
    1104:	38 f0       	brcs	.+14     	; 0x1114 <__stack+0x15>
		sec=1;
    1106:	81 e0       	ldi	r24, 0x01	; 1
    1108:	80 93 1c 01 	sts	0x011C, r24	; 0x80011c <sec>
		tlrks = 0;
    110c:	10 92 20 01 	sts	0x0120, r1	; 0x800120 <tlrks+0x1>
    1110:	10 92 1f 01 	sts	0x011F, r1	; 0x80011f <tlrks>
	}
}
    1114:	9f 91       	pop	r25
    1116:	8f 91       	pop	r24
    1118:	2f 91       	pop	r18
    111a:	0f 90       	pop	r0
    111c:	0f be       	out	0x3f, r0	; 63
    111e:	0f 90       	pop	r0
    1120:	1f 90       	pop	r1
    1122:	18 95       	reti

00001124 <__vector_1>:



ISR(INT0_vect){ //  
    1124:	1f 92       	push	r1
    1126:	0f 92       	push	r0
    1128:	0f b6       	in	r0, 0x3f	; 63
    112a:	0f 92       	push	r0
    112c:	11 24       	eor	r1, r1
    112e:	8f 93       	push	r24
    1130:	9f 93       	push	r25
	pcount++;
    1132:	80 91 1d 01 	lds	r24, 0x011D	; 0x80011d <pcount>
    1136:	90 91 1e 01 	lds	r25, 0x011E	; 0x80011e <pcount+0x1>
    113a:	01 96       	adiw	r24, 0x01	; 1
    113c:	90 93 1e 01 	sts	0x011E, r25	; 0x80011e <pcount+0x1>
    1140:	80 93 1d 01 	sts	0x011D, r24	; 0x80011d <pcount>
}
    1144:	9f 91       	pop	r25
    1146:	8f 91       	pop	r24
    1148:	0f 90       	pop	r0
    114a:	0f be       	out	0x3f, r0	; 63
    114c:	0f 90       	pop	r0
    114e:	1f 90       	pop	r1
    1150:	18 95       	reti

00001152 <__vector_21>:



ISR(ADC_vect){
    1152:	1f 92       	push	r1
    1154:	0f 92       	push	r0
    1156:	0f b6       	in	r0, 0x3f	; 63
    1158:	0f 92       	push	r0
    115a:	11 24       	eor	r1, r1
    115c:	8f 93       	push	r24
    115e:	9f 93       	push	r25
	ad_val = ADC;
    1160:	84 b1       	in	r24, 0x04	; 4
    1162:	95 b1       	in	r25, 0x05	; 5
    1164:	90 93 22 01 	sts	0x0122, r25	; 0x800122 <ad_val+0x1>
    1168:	80 93 21 01 	sts	0x0121, r24	; 0x800121 <ad_val>
}
    116c:	9f 91       	pop	r25
    116e:	8f 91       	pop	r24
    1170:	0f 90       	pop	r0
    1172:	0f be       	out	0x3f, r0	; 63
    1174:	0f 90       	pop	r0
    1176:	1f 90       	pop	r1
    1178:	18 95       	reti

0000117a <capture_wave>:

void capture_wave (int16_t *buffer, uint16_t count)
{
    117a:	fc 01       	movw	r30, r24
	ADMUX = _BV(REFS0)|_BV(ADLAR)|_BV(MUX2)|_BV(MUX1)|_BV(MUX0);	// channel
    117c:	87 e6       	ldi	r24, 0x67	; 103
    117e:	87 b9       	out	0x07, r24	; 7
    1180:	01 c0       	rjmp	.+2      	; 0x1184 <capture_wave+0xa>

	do {
		ADCSRA = _BV(ADEN)|_BV(ADSC)|_BV(ADFR)|_BV(ADIF)|_BV(ADPS2)|_BV(ADPS1)| _BV(ADPS0); //Prescale 128 -> 8us
		while(bit_is_clear(ADCSRA, ADIF)); //  
		*buffer++ = ADC - 32768;
    1182:	fc 01       	movw	r30, r24
void capture_wave (int16_t *buffer, uint16_t count)
{
	ADMUX = _BV(REFS0)|_BV(ADLAR)|_BV(MUX2)|_BV(MUX1)|_BV(MUX0);	// channel

	do {
		ADCSRA = _BV(ADEN)|_BV(ADSC)|_BV(ADFR)|_BV(ADIF)|_BV(ADPS2)|_BV(ADPS1)| _BV(ADPS0); //Prescale 128 -> 8us
    1184:	87 ef       	ldi	r24, 0xF7	; 247
    1186:	86 b9       	out	0x06, r24	; 6
		while(bit_is_clear(ADCSRA, ADIF)); //  
    1188:	34 9b       	sbis	0x06, 4	; 6
    118a:	fe cf       	rjmp	.-4      	; 0x1188 <capture_wave+0xe>
		*buffer++ = ADC - 32768;
    118c:	cf 01       	movw	r24, r30
    118e:	02 96       	adiw	r24, 0x02	; 2
    1190:	24 b1       	in	r18, 0x04	; 4
    1192:	35 b1       	in	r19, 0x05	; 5
    1194:	30 58       	subi	r19, 0x80	; 128
    1196:	31 83       	std	Z+1, r19	; 0x01
    1198:	20 83       	st	Z, r18
	} while(--count);
    119a:	61 50       	subi	r22, 0x01	; 1
    119c:	71 09       	sbc	r23, r1
    119e:	89 f7       	brne	.-30     	; 0x1182 <capture_wave+0x8>

	ADCSRA = 0;
    11a0:	16 b8       	out	0x06, r1	; 6
    11a2:	08 95       	ret

000011a4 <main>:
}

int main(){
    11a4:	cf 93       	push	r28
    11a6:	df 93       	push	r29
    11a8:	cd b7       	in	r28, 0x3d	; 61
    11aa:	de b7       	in	r29, 0x3e	; 62
    11ac:	c0 54       	subi	r28, 0x40	; 64
    11ae:	d1 09       	sbc	r29, r1
    11b0:	0f b6       	in	r0, 0x3f	; 63
    11b2:	f8 94       	cli
    11b4:	de bf       	out	0x3e, r29	; 62
    11b6:	0f be       	out	0x3f, r0	; 63
    11b8:	cd bf       	out	0x3d, r28	; 61
	unsigned char ffton[]="RUNNING FFT", fftoff[]="STOP    FFT",freql[16]; //LCD  
    11ba:	8c e0       	ldi	r24, 0x0C	; 12
    11bc:	e0 e0       	ldi	r30, 0x00	; 0
    11be:	f1 e0       	ldi	r31, 0x01	; 1
    11c0:	de 01       	movw	r26, r28
    11c2:	11 96       	adiw	r26, 0x01	; 1
    11c4:	01 90       	ld	r0, Z+
    11c6:	0d 92       	st	X+, r0
    11c8:	8a 95       	dec	r24
    11ca:	e1 f7       	brne	.-8      	; 0x11c4 <main+0x20>
    11cc:	8c e0       	ldi	r24, 0x0C	; 12
    11ce:	ec e0       	ldi	r30, 0x0C	; 12
    11d0:	f1 e0       	ldi	r31, 0x01	; 1
    11d2:	de 01       	movw	r26, r28
    11d4:	1d 96       	adiw	r26, 0x0d	; 13
    11d6:	01 90       	ld	r0, Z+
    11d8:	0d 92       	st	X+, r0
    11da:	8a 95       	dec	r24
    11dc:	e1 f7       	brne	.-8      	; 0x11d6 <main+0x32>
	TIMER0_FAST_PWM;
    11de:	83 b7       	in	r24, 0x33	; 51
    11e0:	88 64       	ori	r24, 0x48	; 72
    11e2:	83 bf       	out	0x33, r24	; 51
	TIMER0_COMP_MODE;
    11e4:	83 b7       	in	r24, 0x33	; 51
    11e6:	80 62       	ori	r24, 0x20	; 32
    11e8:	83 bf       	out	0x33, r24	; 51
	TIMER0_PRESCALER;
    11ea:	83 b7       	in	r24, 0x33	; 51
    11ec:	84 60       	ori	r24, 0x04	; 4
    11ee:	83 bf       	out	0x33, r24	; 51
	
	DDRA = 0xff; // led
    11f0:	8f ef       	ldi	r24, 0xFF	; 255
    11f2:	8a bb       	out	0x1a, r24	; 26
	DDRB = 0xf0; // led
    11f4:	80 ef       	ldi	r24, 0xF0	; 240
    11f6:	87 bb       	out	0x17, r24	; 23
	
	TIMSK |= 1<<TOIE0;
    11f8:	87 b7       	in	r24, 0x37	; 55
    11fa:	81 60       	ori	r24, 0x01	; 1
    11fc:	87 bf       	out	0x37, r24	; 55
	TCCR0 = 1<<CS02; //prescale 64 -> 4us
    11fe:	84 e0       	ldi	r24, 0x04	; 4
    1200:	83 bf       	out	0x33, r24	; 51
	TCNT0 = 6;
    1202:	86 e0       	ldi	r24, 0x06	; 6
    1204:	82 bf       	out	0x32, r24	; 50
	EICRA |= IE0_EICRA;
    1206:	ea e6       	ldi	r30, 0x6A	; 106
    1208:	f0 e0       	ldi	r31, 0x00	; 0
    120a:	80 81       	ld	r24, Z
    120c:	82 60       	ori	r24, 0x02	; 2
    120e:	80 83       	st	Z, r24
	EIMSK |= IE0_EIMSK;
    1210:	89 b7       	in	r24, 0x39	; 57
    1212:	81 60       	ori	r24, 0x01	; 1
    1214:	89 bf       	out	0x39, r24	; 57
	ADMUX = _BV(REFS0)|_BV(ADLAR)|_BV(MUX2)|_BV(MUX1)|_BV(MUX0); //AD:AVCC
    1216:	87 e6       	ldi	r24, 0x67	; 103
    1218:	87 b9       	out	0x07, r24	; 7
	ADCSRA = 1<< (ADEN)| 1<< (ADSC)|1 <<(ADFR)| 1<< (ADPS2)| 1<< (ADPS1)| 1<< (ADPS0); //prescale 128
    121a:	87 ee       	ldi	r24, 0xE7	; 231
    121c:	86 b9       	out	0x06, r24	; 6
	UCSR0B |= 1<< RXEN0 | 1<<TXEN0; // ,  0x18
    121e:	8a b1       	in	r24, 0x0a	; 10
    1220:	88 61       	ori	r24, 0x18	; 24
    1222:	8a b9       	out	0x0a, r24	; 10
	UCSR0B |= 1<< RXCIE0; // Recive Interrupt enable
    1224:	8a b1       	in	r24, 0x0a	; 10
    1226:	80 68       	ori	r24, 0x80	; 128
    1228:	8a b9       	out	0x0a, r24	; 10
	UCSR0C |= 1<< UCSZ00 | 1<< UCSZ01; //  = 8
    122a:	e5 e9       	ldi	r30, 0x95	; 149
    122c:	f0 e0       	ldi	r31, 0x00	; 0
    122e:	80 81       	ld	r24, Z
    1230:	86 60       	ori	r24, 0x06	; 6
    1232:	80 83       	st	Z, r24
	UBRR0L = 25; //Baud Rate 38400
    1234:	89 e1       	ldi	r24, 0x19	; 25
    1236:	89 b9       	out	0x09, r24	; 9
	UCSR1B = 0x18; // ,  //   
    1238:	88 e1       	ldi	r24, 0x18	; 24
    123a:	80 93 9a 00 	sts	0x009A, r24	; 0x80009a <__TEXT_REGION_LENGTH__+0x7e009a>
	UCSR1C |= 1<< UCSZ10 | 1<< UCSZ11;
    123e:	ed e9       	ldi	r30, 0x9D	; 157
    1240:	f0 e0       	ldi	r31, 0x00	; 0
    1242:	80 81       	ld	r24, Z
    1244:	86 60       	ori	r24, 0x06	; 6
    1246:	80 83       	st	Z, r24
	UBRR1L = 3;
    1248:	83 e0       	ldi	r24, 0x03	; 3
    124a:	80 93 99 00 	sts	0x0099, r24	; 0x800099 <__TEXT_REGION_LENGTH__+0x7e0099>
	sei();
    124e:	78 94       	sei
	
	LCD_init();
    1250:	c9 de       	rcall	.-622    	; 0xfe4 <LCD_init>
	uint16_t m, n;
	uint16_t s[FFT_N/2][7];
	char k,q=0;
	double specsum = 0,specrate[3];
	unsigned int regi[5];
	unsigned int freq=6,freqa[6],acfreq = 0; //   freq = 6
    1252:	06 e0       	ldi	r16, 0x06	; 6
    1254:	10 e0       	ldi	r17, 0x00	; 0
	while(1) {
		if(pcount == 0) LCD_display(fftoff,1); // lcd 
    1256:	80 91 1d 01 	lds	r24, 0x011D	; 0x80011d <pcount>
    125a:	90 91 1e 01 	lds	r25, 0x011E	; 0x80011e <pcount+0x1>
    125e:	89 2b       	or	r24, r25
    1260:	21 f4       	brne	.+8      	; 0x126a <main+0xc6>
    1262:	61 e0       	ldi	r22, 0x01	; 1
    1264:	ce 01       	movw	r24, r28
    1266:	0d 96       	adiw	r24, 0x0d	; 13
    1268:	1a df       	rcall	.-460    	; 0x109e <LCD_display>
		capture_wave(capture, FFT_N);
    126a:	60 e0       	ldi	r22, 0x00	; 0
    126c:	72 e0       	ldi	r23, 0x02	; 2
    126e:	83 e3       	ldi	r24, 0x33	; 51
    1270:	9b e0       	ldi	r25, 0x0B	; 11
    1272:	83 df       	rcall	.-250    	; 0x117a <capture_wave>
		fft_input(capture, bfly_buff);
    1274:	63 e2       	ldi	r22, 0x23	; 35
    1276:	71 e0       	ldi	r23, 0x01	; 1
    1278:	83 e3       	ldi	r24, 0x33	; 51
    127a:	9b e0       	ldi	r25, 0x0B	; 11
		fft_execute(bfly_buff);
    127c:	e8 dc       	rcall	.-1584   	; 0xc4e <fft_input>
    127e:	83 e2       	ldi	r24, 0x23	; 35
    1280:	91 e0       	ldi	r25, 0x01	; 1
		fft_output(bfly_buff, spectrum);
    1282:	14 dd       	rcall	.-1496   	; 0xcac <fft_execute>
    1284:	63 e3       	ldi	r22, 0x33	; 51
    1286:	79 e0       	ldi	r23, 0x09	; 9
    1288:	83 e2       	ldi	r24, 0x23	; 35
    128a:	91 e0       	ldi	r25, 0x01	; 1
    128c:	d9 dd       	rcall	.-1102   	; 0xe40 <fft_output>
		for(n=6;n<FFT_N/2;n++){
    128e:	86 e0       	ldi	r24, 0x06	; 6
    1290:	90 e0       	ldi	r25, 0x00	; 0
    1292:	2a c0       	rjmp	.+84     	; 0x12e8 <main+0x144>
			if(spectrum[n]<11) spectrum[n]=0; //10     
    1294:	fc 01       	movw	r30, r24
    1296:	ee 0f       	add	r30, r30
    1298:	ff 1f       	adc	r31, r31
    129a:	ed 5c       	subi	r30, 0xCD	; 205
    129c:	f6 4f       	sbci	r31, 0xF6	; 246
    129e:	20 81       	ld	r18, Z
    12a0:	31 81       	ldd	r19, Z+1	; 0x01
    12a2:	2b 30       	cpi	r18, 0x0B	; 11
    12a4:	31 05       	cpc	r19, r1
    12a6:	38 f4       	brcc	.+14     	; 0x12b6 <main+0x112>
    12a8:	fc 01       	movw	r30, r24
    12aa:	ee 0f       	add	r30, r30
    12ac:	ff 1f       	adc	r31, r31
    12ae:	ed 5c       	subi	r30, 0xCD	; 205
    12b0:	f6 4f       	sbci	r31, 0xF6	; 246
    12b2:	11 82       	std	Z+1, r1	; 0x01
    12b4:	10 82       	st	Z, r1
			if(spectrum[n]<2000 && spectrum[n]>0)
    12b6:	fc 01       	movw	r30, r24
    12b8:	ee 0f       	add	r30, r30
    12ba:	ff 1f       	adc	r31, r31
    12bc:	ed 5c       	subi	r30, 0xCD	; 205
    12be:	f6 4f       	sbci	r31, 0xF6	; 246
    12c0:	20 81       	ld	r18, Z
    12c2:	31 81       	ldd	r19, Z+1	; 0x01
    12c4:	a9 01       	movw	r20, r18
    12c6:	41 50       	subi	r20, 0x01	; 1
    12c8:	51 09       	sbc	r21, r1
    12ca:	4f 3c       	cpi	r20, 0xCF	; 207
    12cc:	57 40       	sbci	r21, 0x07	; 7
    12ce:	58 f4       	brcc	.+22     	; 0x12e6 <main+0x142>
			if(spectrum[freq]<spectrum[n])			freq = n; //  
    12d0:	f8 01       	movw	r30, r16
    12d2:	ee 0f       	add	r30, r30
    12d4:	ff 1f       	adc	r31, r31
    12d6:	ed 5c       	subi	r30, 0xCD	; 205
    12d8:	f6 4f       	sbci	r31, 0xF6	; 246
    12da:	40 81       	ld	r20, Z
    12dc:	51 81       	ldd	r21, Z+1	; 0x01
    12de:	42 17       	cp	r20, r18
    12e0:	53 07       	cpc	r21, r19
    12e2:	08 f4       	brcc	.+2      	; 0x12e6 <main+0x142>
    12e4:	8c 01       	movw	r16, r24
		if(pcount == 0) LCD_display(fftoff,1); // lcd 
		capture_wave(capture, FFT_N);
		fft_input(capture, bfly_buff);
		fft_execute(bfly_buff);
		fft_output(bfly_buff, spectrum);
		for(n=6;n<FFT_N/2;n++){
    12e6:	01 96       	adiw	r24, 0x01	; 1
    12e8:	8f 3f       	cpi	r24, 0xFF	; 255
    12ea:	91 05       	cpc	r25, r1
    12ec:	99 f2       	breq	.-90     	; 0x1294 <main+0xf0>
    12ee:	90 f2       	brcs	.-92     	; 0x1294 <main+0xf0>
			if(spectrum[n]<11) spectrum[n]=0; //10     
			if(spectrum[n]<2000 && spectrum[n]>0)
			if(spectrum[freq]<spectrum[n])			freq = n; //  
		}
		specsum = spectrum[freq-1]+spectrum[freq]+spectrum[freq+1]; //     
    12f0:	58 01       	movw	r10, r16
    12f2:	81 e0       	ldi	r24, 0x01	; 1
    12f4:	a8 1a       	sub	r10, r24
    12f6:	b1 08       	sbc	r11, r1
    12f8:	f5 01       	movw	r30, r10
    12fa:	ee 0f       	add	r30, r30
    12fc:	ff 1f       	adc	r31, r31
    12fe:	ed 5c       	subi	r30, 0xCD	; 205
    1300:	f6 4f       	sbci	r31, 0xF6	; 246
    1302:	60 81       	ld	r22, Z
    1304:	71 81       	ldd	r23, Z+1	; 0x01
    1306:	f8 01       	movw	r30, r16
    1308:	ee 0f       	add	r30, r30
    130a:	ff 1f       	adc	r31, r31
    130c:	ed 5c       	subi	r30, 0xCD	; 205
    130e:	f6 4f       	sbci	r31, 0xF6	; 246
    1310:	80 81       	ld	r24, Z
    1312:	91 81       	ldd	r25, Z+1	; 0x01
    1314:	68 0f       	add	r22, r24
    1316:	79 1f       	adc	r23, r25
    1318:	68 01       	movw	r12, r16
    131a:	9f ef       	ldi	r25, 0xFF	; 255
    131c:	c9 1a       	sub	r12, r25
    131e:	d9 0a       	sbc	r13, r25
    1320:	f6 01       	movw	r30, r12
    1322:	ee 0f       	add	r30, r30
    1324:	ff 1f       	adc	r31, r31
    1326:	ed 5c       	subi	r30, 0xCD	; 205
    1328:	f6 4f       	sbci	r31, 0xF6	; 246
    132a:	80 81       	ld	r24, Z
    132c:	91 81       	ldd	r25, Z+1	; 0x01
    132e:	68 0f       	add	r22, r24
    1330:	79 1f       	adc	r23, r25
    1332:	80 e0       	ldi	r24, 0x00	; 0
    1334:	90 e0       	ldi	r25, 0x00	; 0
    1336:	e2 d5       	rcall	.+3012   	; 0x1efc <__floatunsisf>
    1338:	2b 01       	movw	r4, r22
    133a:	3c 01       	movw	r6, r24
		for(int rate = 0; rate<3; rate++){
    133c:	e1 2c       	mov	r14, r1
    133e:	f1 2c       	mov	r15, r1
    1340:	22 c0       	rjmp	.+68     	; 0x1386 <main+0x1e2>
			specrate[rate] = (spectrum[freq + rate -1]/specsum); //    
    1342:	f7 01       	movw	r30, r14
    1344:	e0 0f       	add	r30, r16
    1346:	f1 1f       	adc	r31, r17
    1348:	31 97       	sbiw	r30, 0x01	; 1
    134a:	ee 0f       	add	r30, r30
    134c:	ff 1f       	adc	r31, r31
    134e:	ed 5c       	subi	r30, 0xCD	; 205
    1350:	f6 4f       	sbci	r31, 0xF6	; 246
    1352:	60 81       	ld	r22, Z
    1354:	71 81       	ldd	r23, Z+1	; 0x01
    1356:	80 e0       	ldi	r24, 0x00	; 0
    1358:	90 e0       	ldi	r25, 0x00	; 0
    135a:	d0 d5       	rcall	.+2976   	; 0x1efc <__floatunsisf>
    135c:	a3 01       	movw	r20, r6
    135e:	92 01       	movw	r18, r4
    1360:	39 d5       	rcall	.+2674   	; 0x1dd4 <__divsf3>
    1362:	f7 01       	movw	r30, r14
    1364:	ee 0f       	add	r30, r30
    1366:	ff 1f       	adc	r31, r31
    1368:	ee 0f       	add	r30, r30
    136a:	ff 1f       	adc	r31, r31
    136c:	21 e0       	ldi	r18, 0x01	; 1
    136e:	30 e0       	ldi	r19, 0x00	; 0
    1370:	2c 0f       	add	r18, r28
    1372:	3d 1f       	adc	r19, r29
    1374:	e2 0f       	add	r30, r18
    1376:	f3 1f       	adc	r31, r19
    1378:	60 a7       	std	Z+40, r22	; 0x28
    137a:	71 a7       	std	Z+41, r23	; 0x29
    137c:	82 a7       	std	Z+42, r24	; 0x2a
    137e:	93 a7       	std	Z+43, r25	; 0x2b
			if(spectrum[n]<11) spectrum[n]=0; //10     
			if(spectrum[n]<2000 && spectrum[n]>0)
			if(spectrum[freq]<spectrum[n])			freq = n; //  
		}
		specsum = spectrum[freq-1]+spectrum[freq]+spectrum[freq+1]; //     
		for(int rate = 0; rate<3; rate++){
    1380:	3f ef       	ldi	r19, 0xFF	; 255
    1382:	e3 1a       	sub	r14, r19
    1384:	f3 0a       	sbc	r15, r19
    1386:	43 e0       	ldi	r20, 0x03	; 3
    1388:	e4 16       	cp	r14, r20
    138a:	f1 04       	cpc	r15, r1
			specrate[rate] = (spectrum[freq + rate -1]/specsum); //    
		}
		acfreq = ((specrate[0] * (freq -1) * 38)+(specrate[1] * (freq) * 38)+(specrate[2] * (freq +1) * 38)); //  =  *  * (38)
    138c:	d4 f2       	brlt	.-76     	; 0x1342 <main+0x19e>
    138e:	49 a4       	ldd	r4, Y+41	; 0x29
    1390:	5a a4       	ldd	r5, Y+42	; 0x2a
    1392:	6b a4       	ldd	r6, Y+43	; 0x2b
    1394:	7c a4       	ldd	r7, Y+44	; 0x2c
    1396:	b5 01       	movw	r22, r10
    1398:	80 e0       	ldi	r24, 0x00	; 0
    139a:	90 e0       	ldi	r25, 0x00	; 0
    139c:	af d5       	rcall	.+2910   	; 0x1efc <__floatunsisf>
    139e:	a3 01       	movw	r20, r6
    13a0:	92 01       	movw	r18, r4
    13a2:	62 d6       	rcall	.+3268   	; 0x2068 <__mulsf3>
    13a4:	20 e0       	ldi	r18, 0x00	; 0
    13a6:	30 e0       	ldi	r19, 0x00	; 0
    13a8:	48 e1       	ldi	r20, 0x18	; 24
    13aa:	52 e4       	ldi	r21, 0x42	; 66
    13ac:	5d d6       	rcall	.+3258   	; 0x2068 <__mulsf3>
    13ae:	4b 01       	movw	r8, r22
    13b0:	5c 01       	movw	r10, r24
    13b2:	4d a4       	ldd	r4, Y+45	; 0x2d
    13b4:	5e a4       	ldd	r5, Y+46	; 0x2e
    13b6:	6f a4       	ldd	r6, Y+47	; 0x2f
    13b8:	78 a8       	ldd	r7, Y+48	; 0x30
    13ba:	b8 01       	movw	r22, r16
    13bc:	80 e0       	ldi	r24, 0x00	; 0
    13be:	90 e0       	ldi	r25, 0x00	; 0
    13c0:	9d d5       	rcall	.+2874   	; 0x1efc <__floatunsisf>
    13c2:	a3 01       	movw	r20, r6
    13c4:	92 01       	movw	r18, r4
    13c6:	50 d6       	rcall	.+3232   	; 0x2068 <__mulsf3>
    13c8:	20 e0       	ldi	r18, 0x00	; 0
    13ca:	30 e0       	ldi	r19, 0x00	; 0
    13cc:	48 e1       	ldi	r20, 0x18	; 24
    13ce:	52 e4       	ldi	r21, 0x42	; 66
    13d0:	4b d6       	rcall	.+3222   	; 0x2068 <__mulsf3>
    13d2:	9b 01       	movw	r18, r22
    13d4:	ac 01       	movw	r20, r24
    13d6:	c5 01       	movw	r24, r10
    13d8:	b4 01       	movw	r22, r8
    13da:	94 d4       	rcall	.+2344   	; 0x1d04 <__addsf3>
    13dc:	2b 01       	movw	r4, r22
    13de:	3c 01       	movw	r6, r24
    13e0:	89 a8       	ldd	r8, Y+49	; 0x31
    13e2:	9a a8       	ldd	r9, Y+50	; 0x32
    13e4:	ab a8       	ldd	r10, Y+51	; 0x33
    13e6:	bc a8       	ldd	r11, Y+52	; 0x34
    13e8:	b6 01       	movw	r22, r12
    13ea:	80 e0       	ldi	r24, 0x00	; 0
    13ec:	90 e0       	ldi	r25, 0x00	; 0
    13ee:	86 d5       	rcall	.+2828   	; 0x1efc <__floatunsisf>
    13f0:	a5 01       	movw	r20, r10
    13f2:	94 01       	movw	r18, r8
    13f4:	39 d6       	rcall	.+3186   	; 0x2068 <__mulsf3>
    13f6:	20 e0       	ldi	r18, 0x00	; 0
    13f8:	30 e0       	ldi	r19, 0x00	; 0
    13fa:	48 e1       	ldi	r20, 0x18	; 24
    13fc:	52 e4       	ldi	r21, 0x42	; 66
    13fe:	34 d6       	rcall	.+3176   	; 0x2068 <__mulsf3>
    1400:	9b 01       	movw	r18, r22
    1402:	ac 01       	movw	r20, r24
    1404:	c3 01       	movw	r24, r6
    1406:	b2 01       	movw	r22, r4
    1408:	7d d4       	rcall	.+2298   	; 0x1d04 <__addsf3>
    140a:	4c d5       	rcall	.+2712   	; 0x1ea4 <__fixunssfsi>
    140c:	6b 01       	movw	r12, r22
    140e:	7c 01       	movw	r14, r24
    1410:	5b 01       	movw	r10, r22
		if(pcount == 1) { //
    1412:	80 91 1d 01 	lds	r24, 0x011D	; 0x80011d <pcount>
    1416:	90 91 1e 01 	lds	r25, 0x011E	; 0x80011e <pcount+0x1>
    141a:	01 97       	sbiw	r24, 0x01	; 1
    141c:	09 f0       	breq	.+2      	; 0x1420 <main+0x27c>
    141e:	cb c1       	rjmp	.+918    	; 0x17b6 <main+0x612>
			LCD_display(ffton,1); // 
    1420:	61 e0       	ldi	r22, 0x01	; 1
    1422:	ce 01       	movw	r24, r28
    1424:	01 96       	adiw	r24, 0x01	; 1
    1426:	3b de       	rcall	.-906    	; 0x109e <LCD_display>
    1428:	80 e0       	ldi	r24, 0x00	; 0
			for (n = 0; n < FFT_N / 2; n++) {	//10  
    142a:	90 e0       	ldi	r25, 0x00	; 0
    142c:	01 c0       	rjmp	.+2      	; 0x1430 <main+0x28c>
    142e:	01 96       	adiw	r24, 0x01	; 1
    1430:	8f 3f       	cpi	r24, 0xFF	; 255
    1432:	91 05       	cpc	r25, r1
    1434:	e1 f3       	breq	.-8      	; 0x142e <main+0x28a>
    1436:	d8 f3       	brcs	.-10     	; 0x142e <main+0x28a>
    1438:	80 91 1c 01 	lds	r24, 0x011C	; 0x80011c <sec>
				s[n][5] = regi[3];
				s[n][6] = regi[4];
				
			}	//for 
			
			if(sec == 1){ // !!!! 1 
    143c:	81 30       	cpi	r24, 0x01	; 1
    143e:	09 f0       	breq	.+2      	; 0x1442 <main+0x29e>
    1440:	e8 c0       	rjmp	.+464    	; 0x1612 <main+0x46e>
    1442:	83 e7       	ldi	r24, 0x73	; 115
				freqa[0] = 's'; //    
    1444:	90 e0       	ldi	r25, 0x00	; 0
    1446:	9e ab       	std	Y+54, r25	; 0x36
    1448:	8d ab       	std	Y+53, r24	; 0x35
    144a:	96 01       	movw	r18, r12
				freqa[1] = (acfreq/1000%10) + 0x30;//  //  + 48? '0'?
    144c:	36 95       	lsr	r19
    144e:	27 95       	ror	r18
    1450:	36 95       	lsr	r19
    1452:	27 95       	ror	r18
    1454:	36 95       	lsr	r19
    1456:	27 95       	ror	r18
    1458:	a5 ec       	ldi	r26, 0xC5	; 197
    145a:	b0 e2       	ldi	r27, 0x20	; 32
    145c:	0e 94 85 15 	call	0x2b0a	; 0x2b0a <__umulhisi3>
    1460:	ac 01       	movw	r20, r24
    1462:	52 95       	swap	r21
    1464:	42 95       	swap	r20
    1466:	4f 70       	andi	r20, 0x0F	; 15
    1468:	45 27       	eor	r20, r21
    146a:	5f 70       	andi	r21, 0x0F	; 15
    146c:	45 27       	eor	r20, r21
    146e:	9a 01       	movw	r18, r20
    1470:	ad ec       	ldi	r26, 0xCD	; 205
    1472:	bc ec       	ldi	r27, 0xCC	; 204
    1474:	0e 94 85 15 	call	0x2b0a	; 0x2b0a <__umulhisi3>
    1478:	96 95       	lsr	r25
    147a:	87 95       	ror	r24
    147c:	96 95       	lsr	r25
    147e:	87 95       	ror	r24
    1480:	96 95       	lsr	r25
    1482:	87 95       	ror	r24
    1484:	9c 01       	movw	r18, r24
    1486:	22 0f       	add	r18, r18
    1488:	33 1f       	adc	r19, r19
    148a:	88 0f       	add	r24, r24
    148c:	99 1f       	adc	r25, r25
    148e:	88 0f       	add	r24, r24
    1490:	99 1f       	adc	r25, r25
    1492:	88 0f       	add	r24, r24
    1494:	99 1f       	adc	r25, r25
    1496:	82 0f       	add	r24, r18
    1498:	93 1f       	adc	r25, r19
    149a:	9a 01       	movw	r18, r20
    149c:	28 1b       	sub	r18, r24
    149e:	39 0b       	sbc	r19, r25
    14a0:	c9 01       	movw	r24, r18
    14a2:	c0 96       	adiw	r24, 0x30	; 48
    14a4:	98 af       	std	Y+56, r25	; 0x38
    14a6:	8f ab       	std	Y+55, r24	; 0x37
    14a8:	96 01       	movw	r18, r12
				freqa[2] = (acfreq/100%10) + 0x30;	// 
    14aa:	36 95       	lsr	r19
    14ac:	27 95       	ror	r18
    14ae:	36 95       	lsr	r19
    14b0:	27 95       	ror	r18
    14b2:	ab e7       	ldi	r26, 0x7B	; 123
    14b4:	b4 e1       	ldi	r27, 0x14	; 20
    14b6:	0e 94 85 15 	call	0x2b0a	; 0x2b0a <__umulhisi3>
    14ba:	ac 01       	movw	r20, r24
    14bc:	56 95       	lsr	r21
    14be:	47 95       	ror	r20
    14c0:	9a 01       	movw	r18, r20
    14c2:	ad ec       	ldi	r26, 0xCD	; 205
    14c4:	bc ec       	ldi	r27, 0xCC	; 204
    14c6:	0e 94 85 15 	call	0x2b0a	; 0x2b0a <__umulhisi3>
    14ca:	96 95       	lsr	r25
    14cc:	87 95       	ror	r24
    14ce:	96 95       	lsr	r25
    14d0:	87 95       	ror	r24
    14d2:	96 95       	lsr	r25
    14d4:	87 95       	ror	r24
    14d6:	9c 01       	movw	r18, r24
    14d8:	22 0f       	add	r18, r18
    14da:	33 1f       	adc	r19, r19
    14dc:	88 0f       	add	r24, r24
    14de:	99 1f       	adc	r25, r25
    14e0:	88 0f       	add	r24, r24
    14e2:	99 1f       	adc	r25, r25
    14e4:	88 0f       	add	r24, r24
    14e6:	99 1f       	adc	r25, r25
    14e8:	82 0f       	add	r24, r18
    14ea:	93 1f       	adc	r25, r19
    14ec:	9a 01       	movw	r18, r20
    14ee:	28 1b       	sub	r18, r24
    14f0:	39 0b       	sbc	r19, r25
    14f2:	c9 01       	movw	r24, r18
    14f4:	c0 96       	adiw	r24, 0x30	; 48
    14f6:	9a af       	std	Y+58, r25	; 0x3a
    14f8:	89 af       	std	Y+57, r24	; 0x39
    14fa:	96 01       	movw	r18, r12
				freqa[3] = (acfreq/10%10) + 0x30;	// 
    14fc:	0e 94 85 15 	call	0x2b0a	; 0x2b0a <__umulhisi3>
    1500:	ac 01       	movw	r20, r24
    1502:	56 95       	lsr	r21
    1504:	47 95       	ror	r20
    1506:	56 95       	lsr	r21
    1508:	47 95       	ror	r20
    150a:	56 95       	lsr	r21
    150c:	47 95       	ror	r20
    150e:	9a 01       	movw	r18, r20
    1510:	0e 94 85 15 	call	0x2b0a	; 0x2b0a <__umulhisi3>
    1514:	96 95       	lsr	r25
    1516:	87 95       	ror	r24
    1518:	96 95       	lsr	r25
    151a:	87 95       	ror	r24
    151c:	96 95       	lsr	r25
    151e:	87 95       	ror	r24
    1520:	9c 01       	movw	r18, r24
    1522:	22 0f       	add	r18, r18
    1524:	33 1f       	adc	r19, r19
    1526:	88 0f       	add	r24, r24
    1528:	99 1f       	adc	r25, r25
    152a:	88 0f       	add	r24, r24
    152c:	99 1f       	adc	r25, r25
    152e:	88 0f       	add	r24, r24
    1530:	99 1f       	adc	r25, r25
    1532:	82 0f       	add	r24, r18
    1534:	93 1f       	adc	r25, r19
    1536:	9a 01       	movw	r18, r20
    1538:	28 1b       	sub	r18, r24
    153a:	39 0b       	sbc	r19, r25
    153c:	c9 01       	movw	r24, r18
    153e:	c0 96       	adiw	r24, 0x30	; 48
    1540:	9c af       	std	Y+60, r25	; 0x3c
    1542:	8b af       	std	Y+59, r24	; 0x3b
    1544:	ca 01       	movw	r24, r20
				freqa[4] = (acfreq%10) + 0x30;		// 
    1546:	88 0f       	add	r24, r24
    1548:	99 1f       	adc	r25, r25
    154a:	44 0f       	add	r20, r20
    154c:	55 1f       	adc	r21, r21
    154e:	44 0f       	add	r20, r20
    1550:	55 1f       	adc	r21, r21
    1552:	44 0f       	add	r20, r20
    1554:	55 1f       	adc	r21, r21
    1556:	84 0f       	add	r24, r20
    1558:	95 1f       	adc	r25, r21
    155a:	a6 01       	movw	r20, r12
    155c:	48 1b       	sub	r20, r24
    155e:	59 0b       	sbc	r21, r25
    1560:	ca 01       	movw	r24, r20
    1562:	c0 96       	adiw	r24, 0x30	; 48
    1564:	9e af       	std	Y+62, r25	; 0x3e
    1566:	8d af       	std	Y+61, r24	; 0x3d
    1568:	85 e6       	ldi	r24, 0x65	; 101
				freqa[5] = 'e'; //   
    156a:	90 e0       	ldi	r25, 0x00	; 0
    156c:	21 96       	adiw	r28, 0x01	; 1
    156e:	9f af       	std	Y+63, r25	; 0x3f
    1570:	8e af       	std	Y+62, r24	; 0x3e
    1572:	21 97       	sbiw	r28, 0x01	; 1
    1574:	58 ee       	ldi	r21, 0xE8	; 232
				if(acfreq < 1000) freqa[1] = ' ';
    1576:	a5 16       	cp	r10, r21
    1578:	53 e0       	ldi	r21, 0x03	; 3
    157a:	b5 06       	cpc	r11, r21
    157c:	20 f4       	brcc	.+8      	; 0x1586 <main+0x3e2>
    157e:	80 e2       	ldi	r24, 0x20	; 32
    1580:	90 e0       	ldi	r25, 0x00	; 0
    1582:	98 af       	std	Y+56, r25	; 0x38
    1584:	8f ab       	std	Y+55, r24	; 0x37
    1586:	64 e6       	ldi	r22, 0x64	; 100
				if(acfreq < 100) freqa[2] = ' ';
    1588:	a6 16       	cp	r10, r22
    158a:	b1 04       	cpc	r11, r1
    158c:	20 f4       	brcc	.+8      	; 0x1596 <main+0x3f2>
    158e:	80 e2       	ldi	r24, 0x20	; 32
    1590:	90 e0       	ldi	r25, 0x00	; 0
    1592:	9a af       	std	Y+58, r25	; 0x3a
    1594:	89 af       	std	Y+57, r24	; 0x39
    1596:	8a e0       	ldi	r24, 0x0A	; 10
				if(acfreq < 10) freqa[3] = ' ';
    1598:	a8 16       	cp	r10, r24
    159a:	b1 04       	cpc	r11, r1
    159c:	20 f4       	brcc	.+8      	; 0x15a6 <main+0x402>
    159e:	80 e2       	ldi	r24, 0x20	; 32
    15a0:	90 e0       	ldi	r25, 0x00	; 0
    15a2:	9c af       	std	Y+60, r25	; 0x3c
    15a4:	8b af       	std	Y+59, r24	; 0x3b
    15a6:	ab 28       	or	r10, r11
				if(acfreq < 1) freqa[4] = '0';
    15a8:	21 f4       	brne	.+8      	; 0x15b2 <main+0x40e>
    15aa:	80 e3       	ldi	r24, 0x30	; 48
    15ac:	90 e0       	ldi	r25, 0x00	; 0
    15ae:	9e af       	std	Y+62, r25	; 0x3e
    15b0:	8d af       	std	Y+61, r24	; 0x3d
    15b2:	80 e0       	ldi	r24, 0x00	; 0
			specrate[rate] = (spectrum[freq + rate -1]/specsum); //    
		}
		acfreq = ((specrate[0] * (freq -1) * 38)+(specrate[1] * (freq) * 38)+(specrate[2] * (freq +1) * 38)); //  =  *  * (38)
		if(pcount == 1) { //
			LCD_display(ffton,1); // 
			for (n = 0; n < FFT_N / 2; n++) {	//10  
    15b4:	90 e0       	ldi	r25, 0x00	; 0
    15b6:	15 c0       	rjmp	.+42     	; 0x15e2 <main+0x43e>
    15b8:	9c 01       	movw	r18, r24
				freqa[5] = 'e'; //   
				if(acfreq < 1000) freqa[1] = ' ';
				if(acfreq < 100) freqa[2] = ' ';
				if(acfreq < 10) freqa[3] = ' ';
				if(acfreq < 1) freqa[4] = '0';
				for(int l=0;l<4;l++) freql[l] = freqa[l+1];
    15ba:	2f 5f       	subi	r18, 0xFF	; 255
    15bc:	3f 4f       	sbci	r19, 0xFF	; 255
    15be:	f9 01       	movw	r30, r18
    15c0:	ee 0f       	add	r30, r30
    15c2:	ff 1f       	adc	r31, r31
    15c4:	41 e0       	ldi	r20, 0x01	; 1
    15c6:	50 e0       	ldi	r21, 0x00	; 0
    15c8:	4c 0f       	add	r20, r28
    15ca:	5d 1f       	adc	r21, r29
    15cc:	e4 0f       	add	r30, r20
    15ce:	f5 1f       	adc	r31, r21
    15d0:	44 a9       	ldd	r20, Z+52	; 0x34
    15d2:	e9 e1       	ldi	r30, 0x19	; 25
    15d4:	f0 e0       	ldi	r31, 0x00	; 0
    15d6:	ec 0f       	add	r30, r28
    15d8:	fd 1f       	adc	r31, r29
    15da:	e8 0f       	add	r30, r24
    15dc:	f9 1f       	adc	r31, r25
    15de:	40 83       	st	Z, r20
    15e0:	c9 01       	movw	r24, r18
    15e2:	84 30       	cpi	r24, 0x04	; 4
    15e4:	91 05       	cpc	r25, r1
    15e6:	44 f3       	brlt	.-48     	; 0x15b8 <main+0x414>
    15e8:	88 e4       	ldi	r24, 0x48	; 72
				freql[4] = 'H';
    15ea:	8d 8f       	std	Y+29, r24	; 0x1d
    15ec:	8a e7       	ldi	r24, 0x7A	; 122
				freql[5] = 'z';
    15ee:	8e 8f       	std	Y+30, r24	; 0x1e
    15f0:	86 e0       	ldi	r24, 0x06	; 6
				for(int l=6;l<16;l++) freql[l] = ' '; // 
    15f2:	90 e0       	ldi	r25, 0x00	; 0
    15f4:	09 c0       	rjmp	.+18     	; 0x1608 <main+0x464>
    15f6:	e9 e1       	ldi	r30, 0x19	; 25
    15f8:	f0 e0       	ldi	r31, 0x00	; 0
    15fa:	ec 0f       	add	r30, r28
    15fc:	fd 1f       	adc	r31, r29
    15fe:	e8 0f       	add	r30, r24
    1600:	f9 1f       	adc	r31, r25
    1602:	20 e2       	ldi	r18, 0x20	; 32
    1604:	20 83       	st	Z, r18
    1606:	01 96       	adiw	r24, 0x01	; 1
    1608:	80 31       	cpi	r24, 0x10	; 16
    160a:	91 05       	cpc	r25, r1
				
				sec=0;	//1   
    160c:	a4 f3       	brlt	.-24     	; 0x15f6 <main+0x452>
    160e:	10 92 1c 01 	sts	0x011C, r1	; 0x80011c <sec>
			q=0;
			
			
			
			
			a = acfreq;
    1612:	d0 92 19 01 	sts	0x0119, r13	; 0x800119 <__data_end+0x1>
    1616:	c0 92 18 01 	sts	0x0118, r12	; 0x800118 <__data_end>
			result = note(a);
    161a:	c6 01       	movw	r24, r12
    161c:	d9 d0       	rcall	.+434    	; 0x17d0 <note>
    161e:	90 93 1b 01 	sts	0x011B, r25	; 0x80011b <result+0x1>
    1622:	80 93 1a 01 	sts	0x011A, r24	; 0x80011a <result>
			
			LCD_display(freql,2); // LCD
    1626:	62 e0       	ldi	r22, 0x02	; 2
    1628:	ce 01       	movw	r24, r28
    162a:	49 96       	adiw	r24, 0x19	; 25
    162c:	38 dd       	rcall	.-1424   	; 0x109e <LCD_display>
    162e:	1b ba       	out	0x1b, r1	; 27
			PORTA=0x00;
    1630:	18 ba       	out	0x18, r1	; 24
			PORTB=0x00;
    1632:	80 91 1a 01 	lds	r24, 0x011A	; 0x80011a <result>
			if (result == 1){
    1636:	90 91 1b 01 	lds	r25, 0x011B	; 0x80011b <result+0x1>
    163a:	81 30       	cpi	r24, 0x01	; 1
    163c:	91 05       	cpc	r25, r1
    163e:	61 f4       	brne	.+24     	; 0x1658 <main+0x4b4>
    1640:	81 e0       	ldi	r24, 0x01	; 1
				PORTA = 0x01;		//
    1642:	8b bb       	out	0x1b, r24	; 27
    1644:	5f ef       	ldi	r21, 0xFF	; 255
	#else
		//round up by default
		__ticks_dc = (uint32_t)(ceil(fabs(__tmp)));
	#endif

	__builtin_avr_delay_cycles(__ticks_dc);
    1646:	69 e6       	ldi	r22, 0x69	; 105
    1648:	88 e1       	ldi	r24, 0x18	; 24
    164a:	51 50       	subi	r21, 0x01	; 1
    164c:	60 40       	sbci	r22, 0x00	; 0
    164e:	80 40       	sbci	r24, 0x00	; 0
    1650:	e1 f7       	brne	.-8      	; 0x164a <main+0x4a6>
    1652:	00 c0       	rjmp	.+0      	; 0x1654 <main+0x4b0>
    1654:	00 00       	nop
    1656:	af c0       	rjmp	.+350    	; 0x17b6 <main+0x612>
    1658:	82 30       	cpi	r24, 0x02	; 2
				_delay_ms(500);
			}
			else if (result == 2){
    165a:	91 05       	cpc	r25, r1
    165c:	61 f4       	brne	.+24     	; 0x1676 <main+0x4d2>
    165e:	80 e8       	ldi	r24, 0x80	; 128
				PORTA = 0x80;		//#
    1660:	8b bb       	out	0x1b, r24	; 27
    1662:	9f ef       	ldi	r25, 0xFF	; 255
    1664:	29 e6       	ldi	r18, 0x69	; 105
    1666:	38 e1       	ldi	r19, 0x18	; 24
    1668:	91 50       	subi	r25, 0x01	; 1
    166a:	20 40       	sbci	r18, 0x00	; 0
    166c:	30 40       	sbci	r19, 0x00	; 0
    166e:	e1 f7       	brne	.-8      	; 0x1668 <main+0x4c4>
    1670:	00 c0       	rjmp	.+0      	; 0x1672 <main+0x4ce>
    1672:	00 00       	nop
    1674:	a0 c0       	rjmp	.+320    	; 0x17b6 <main+0x612>
    1676:	83 30       	cpi	r24, 0x03	; 3
				_delay_ms(500);
			}
			else if (result == 3){	//
    1678:	91 05       	cpc	r25, r1
    167a:	61 f4       	brne	.+24     	; 0x1694 <main+0x4f0>
    167c:	82 e0       	ldi	r24, 0x02	; 2
				PORTA = 0x02;
    167e:	8b bb       	out	0x1b, r24	; 27
    1680:	4f ef       	ldi	r20, 0xFF	; 255
    1682:	59 e6       	ldi	r21, 0x69	; 105
    1684:	68 e1       	ldi	r22, 0x18	; 24
    1686:	41 50       	subi	r20, 0x01	; 1
    1688:	50 40       	sbci	r21, 0x00	; 0
    168a:	60 40       	sbci	r22, 0x00	; 0
    168c:	e1 f7       	brne	.-8      	; 0x1686 <main+0x4e2>
    168e:	00 c0       	rjmp	.+0      	; 0x1690 <main+0x4ec>
    1690:	00 00       	nop
    1692:	91 c0       	rjmp	.+290    	; 0x17b6 <main+0x612>
    1694:	84 30       	cpi	r24, 0x04	; 4
				_delay_ms(500);
			}
			else if (result == 4){	//#
    1696:	91 05       	cpc	r25, r1
    1698:	61 f4       	brne	.+24     	; 0x16b2 <main+0x50e>
    169a:	80 e1       	ldi	r24, 0x10	; 16
				PORTB = 0x10;
    169c:	88 bb       	out	0x18, r24	; 24
    169e:	8f ef       	ldi	r24, 0xFF	; 255
    16a0:	99 e6       	ldi	r25, 0x69	; 105
    16a2:	28 e1       	ldi	r18, 0x18	; 24
    16a4:	81 50       	subi	r24, 0x01	; 1
    16a6:	90 40       	sbci	r25, 0x00	; 0
    16a8:	20 40       	sbci	r18, 0x00	; 0
    16aa:	e1 f7       	brne	.-8      	; 0x16a4 <main+0x500>
    16ac:	00 c0       	rjmp	.+0      	; 0x16ae <main+0x50a>
    16ae:	00 00       	nop
    16b0:	82 c0       	rjmp	.+260    	; 0x17b6 <main+0x612>
    16b2:	85 30       	cpi	r24, 0x05	; 5
				_delay_ms(500);
			}
			else if (result == 5){	//
    16b4:	91 05       	cpc	r25, r1
    16b6:	61 f4       	brne	.+24     	; 0x16d0 <main+0x52c>
    16b8:	84 e0       	ldi	r24, 0x04	; 4
				PORTA = 0x04;
    16ba:	8b bb       	out	0x1b, r24	; 27
    16bc:	3f ef       	ldi	r19, 0xFF	; 255
    16be:	49 e6       	ldi	r20, 0x69	; 105
    16c0:	58 e1       	ldi	r21, 0x18	; 24
    16c2:	31 50       	subi	r19, 0x01	; 1
    16c4:	40 40       	sbci	r20, 0x00	; 0
    16c6:	50 40       	sbci	r21, 0x00	; 0
    16c8:	e1 f7       	brne	.-8      	; 0x16c2 <main+0x51e>
    16ca:	00 c0       	rjmp	.+0      	; 0x16cc <main+0x528>
    16cc:	00 00       	nop
    16ce:	73 c0       	rjmp	.+230    	; 0x17b6 <main+0x612>
    16d0:	86 30       	cpi	r24, 0x06	; 6
				_delay_ms(500);
			}
			else if (result==6){	//
    16d2:	91 05       	cpc	r25, r1
    16d4:	61 f4       	brne	.+24     	; 0x16ee <main+0x54a>
    16d6:	88 e0       	ldi	r24, 0x08	; 8
				PORTA = 0x08;
    16d8:	8b bb       	out	0x1b, r24	; 27
    16da:	6f ef       	ldi	r22, 0xFF	; 255
    16dc:	89 e6       	ldi	r24, 0x69	; 105
    16de:	98 e1       	ldi	r25, 0x18	; 24
    16e0:	61 50       	subi	r22, 0x01	; 1
    16e2:	80 40       	sbci	r24, 0x00	; 0
    16e4:	90 40       	sbci	r25, 0x00	; 0
    16e6:	e1 f7       	brne	.-8      	; 0x16e0 <main+0x53c>
    16e8:	00 c0       	rjmp	.+0      	; 0x16ea <main+0x546>
    16ea:	00 00       	nop
    16ec:	64 c0       	rjmp	.+200    	; 0x17b6 <main+0x612>
    16ee:	87 30       	cpi	r24, 0x07	; 7
				_delay_ms(500);
			}
			else if (result==7){	//#
    16f0:	91 05       	cpc	r25, r1
    16f2:	61 f4       	brne	.+24     	; 0x170c <main+0x568>
    16f4:	80 e2       	ldi	r24, 0x20	; 32
				PORTB = 0x20;
    16f6:	88 bb       	out	0x18, r24	; 24
    16f8:	2f ef       	ldi	r18, 0xFF	; 255
    16fa:	39 e6       	ldi	r19, 0x69	; 105
    16fc:	48 e1       	ldi	r20, 0x18	; 24
    16fe:	21 50       	subi	r18, 0x01	; 1
    1700:	30 40       	sbci	r19, 0x00	; 0
    1702:	40 40       	sbci	r20, 0x00	; 0
    1704:	e1 f7       	brne	.-8      	; 0x16fe <main+0x55a>
    1706:	00 c0       	rjmp	.+0      	; 0x1708 <main+0x564>
    1708:	00 00       	nop
    170a:	55 c0       	rjmp	.+170    	; 0x17b6 <main+0x612>
    170c:	88 30       	cpi	r24, 0x08	; 8
				_delay_ms(500);
			}	
			else if (result==8){	//
    170e:	91 05       	cpc	r25, r1
    1710:	61 f4       	brne	.+24     	; 0x172a <main+0x586>
    1712:	80 e1       	ldi	r24, 0x10	; 16
				PORTA = 0x10;
    1714:	8b bb       	out	0x1b, r24	; 27
    1716:	5f ef       	ldi	r21, 0xFF	; 255
    1718:	69 e6       	ldi	r22, 0x69	; 105
    171a:	88 e1       	ldi	r24, 0x18	; 24
    171c:	51 50       	subi	r21, 0x01	; 1
    171e:	60 40       	sbci	r22, 0x00	; 0
    1720:	80 40       	sbci	r24, 0x00	; 0
    1722:	e1 f7       	brne	.-8      	; 0x171c <main+0x578>
    1724:	00 c0       	rjmp	.+0      	; 0x1726 <main+0x582>
    1726:	00 00       	nop
    1728:	46 c0       	rjmp	.+140    	; 0x17b6 <main+0x612>
    172a:	89 30       	cpi	r24, 0x09	; 9
				_delay_ms(500);
			}
			else if (result==9){	//#
    172c:	91 05       	cpc	r25, r1
    172e:	61 f4       	brne	.+24     	; 0x1748 <main+0x5a4>
    1730:	80 e4       	ldi	r24, 0x40	; 64
				PORTB = 0x40;
    1732:	88 bb       	out	0x18, r24	; 24
    1734:	9f ef       	ldi	r25, 0xFF	; 255
    1736:	29 e6       	ldi	r18, 0x69	; 105
    1738:	38 e1       	ldi	r19, 0x18	; 24
    173a:	91 50       	subi	r25, 0x01	; 1
    173c:	20 40       	sbci	r18, 0x00	; 0
    173e:	30 40       	sbci	r19, 0x00	; 0
    1740:	e1 f7       	brne	.-8      	; 0x173a <main+0x596>
    1742:	00 c0       	rjmp	.+0      	; 0x1744 <main+0x5a0>
    1744:	00 00       	nop
    1746:	37 c0       	rjmp	.+110    	; 0x17b6 <main+0x612>
    1748:	8a 30       	cpi	r24, 0x0A	; 10
				_delay_ms(500);
			}	
			else if (result==10){	//
    174a:	91 05       	cpc	r25, r1
    174c:	61 f4       	brne	.+24     	; 0x1766 <main+0x5c2>
    174e:	80 e2       	ldi	r24, 0x20	; 32
				PORTA = 0x20;
    1750:	8b bb       	out	0x1b, r24	; 27
    1752:	4f ef       	ldi	r20, 0xFF	; 255
    1754:	59 e6       	ldi	r21, 0x69	; 105
    1756:	68 e1       	ldi	r22, 0x18	; 24
    1758:	41 50       	subi	r20, 0x01	; 1
    175a:	50 40       	sbci	r21, 0x00	; 0
    175c:	60 40       	sbci	r22, 0x00	; 0
    175e:	e1 f7       	brne	.-8      	; 0x1758 <main+0x5b4>
    1760:	00 c0       	rjmp	.+0      	; 0x1762 <main+0x5be>
    1762:	00 00       	nop
    1764:	28 c0       	rjmp	.+80     	; 0x17b6 <main+0x612>
    1766:	8b 30       	cpi	r24, 0x0B	; 11
				_delay_ms(500);
			}
			else if (result==11){	//#
    1768:	91 05       	cpc	r25, r1
    176a:	61 f4       	brne	.+24     	; 0x1784 <main+0x5e0>
    176c:	80 e8       	ldi	r24, 0x80	; 128
				PORTB = 0x80;
    176e:	88 bb       	out	0x18, r24	; 24
    1770:	8f ef       	ldi	r24, 0xFF	; 255
    1772:	99 e6       	ldi	r25, 0x69	; 105
    1774:	28 e1       	ldi	r18, 0x18	; 24
    1776:	81 50       	subi	r24, 0x01	; 1
    1778:	90 40       	sbci	r25, 0x00	; 0
    177a:	20 40       	sbci	r18, 0x00	; 0
    177c:	e1 f7       	brne	.-8      	; 0x1776 <main+0x5d2>
    177e:	00 c0       	rjmp	.+0      	; 0x1780 <main+0x5dc>
    1780:	00 00       	nop
    1782:	19 c0       	rjmp	.+50     	; 0x17b6 <main+0x612>
    1784:	0c 97       	sbiw	r24, 0x0c	; 12
				_delay_ms(500);
			}
			else if (result==12){	//
    1786:	61 f4       	brne	.+24     	; 0x17a0 <main+0x5fc>
    1788:	80 e4       	ldi	r24, 0x40	; 64
				PORTA = 0x40;
    178a:	8b bb       	out	0x1b, r24	; 27
    178c:	3f ef       	ldi	r19, 0xFF	; 255
    178e:	49 e6       	ldi	r20, 0x69	; 105
    1790:	58 e1       	ldi	r21, 0x18	; 24
    1792:	31 50       	subi	r19, 0x01	; 1
    1794:	40 40       	sbci	r20, 0x00	; 0
    1796:	50 40       	sbci	r21, 0x00	; 0
    1798:	e1 f7       	brne	.-8      	; 0x1792 <main+0x5ee>
    179a:	00 c0       	rjmp	.+0      	; 0x179c <main+0x5f8>
    179c:	00 00       	nop
    179e:	0b c0       	rjmp	.+22     	; 0x17b6 <main+0x612>
				_delay_ms(500);
			}
			else{
				PORTA = 0x00;
    17a0:	1b ba       	out	0x1b, r1	; 27
				PORTB = 0x00;
    17a2:	18 ba       	out	0x18, r1	; 24
    17a4:	6f ef       	ldi	r22, 0xFF	; 255
    17a6:	89 e6       	ldi	r24, 0x69	; 105
    17a8:	98 e1       	ldi	r25, 0x18	; 24
    17aa:	61 50       	subi	r22, 0x01	; 1
    17ac:	80 40       	sbci	r24, 0x00	; 0
    17ae:	90 40       	sbci	r25, 0x00	; 0
    17b0:	e1 f7       	brne	.-8      	; 0x17aa <main+0x606>
    17b2:	00 c0       	rjmp	.+0      	; 0x17b4 <main+0x610>
    17b4:	00 00       	nop
			
		}
		
		
		
		if(pcount > 2) {
    17b6:	80 91 1d 01 	lds	r24, 0x011D	; 0x80011d <pcount>
    17ba:	90 91 1e 01 	lds	r25, 0x011E	; 0x80011e <pcount+0x1>
    17be:	03 97       	sbiw	r24, 0x03	; 3
    17c0:	08 f4       	brcc	.+2      	; 0x17c4 <main+0x620>
    17c2:	49 cd       	rjmp	.-1390   	; 0x1256 <main+0xb2>
			pcount=0;
    17c4:	10 92 1e 01 	sts	0x011E, r1	; 0x80011e <pcount+0x1>
    17c8:	10 92 1d 01 	sts	0x011D, r1	; 0x80011d <pcount>
			LCD_clear();// LCD
    17cc:	7f dc       	rcall	.-1794   	; 0x10cc <LCD_clear>
    17ce:	43 cd       	rjmp	.-1402   	; 0x1256 <main+0xb2>

000017d0 <note>:
 *  Author: admin
 */ 
#include <math.h>
int i, result;

int note(int a) {
    17d0:	8f 92       	push	r8
    17d2:	9f 92       	push	r9
    17d4:	af 92       	push	r10
    17d6:	bf 92       	push	r11
    17d8:	cf 92       	push	r12
    17da:	df 92       	push	r13
    17dc:	ef 92       	push	r14
    17de:	ff 92       	push	r15
	if ((31.785<a) && (a<63.575))									//0
    17e0:	bc 01       	movw	r22, r24
    17e2:	99 0f       	add	r25, r25
    17e4:	88 0b       	sbc	r24, r24
    17e6:	99 0b       	sbc	r25, r25
    17e8:	8b d3       	rcall	.+1814   	; 0x1f00 <__floatsisf>
    17ea:	6b 01       	movw	r12, r22
    17ec:	7c 01       	movw	r14, r24
    17ee:	2e ea       	ldi	r18, 0xAE	; 174
    17f0:	37 e4       	ldi	r19, 0x47	; 71
    17f2:	4e ef       	ldi	r20, 0xFE	; 254
    17f4:	51 e4       	ldi	r21, 0x41	; 65
    17f6:	34 d4       	rcall	.+2152   	; 0x2060 <__gesf2>
    17f8:	18 16       	cp	r1, r24
    17fa:	74 f4       	brge	.+28     	; 0x1818 <note+0x48>
    17fc:	2d ec       	ldi	r18, 0xCD	; 205
    17fe:	3c e4       	ldi	r19, 0x4C	; 76
    1800:	4e e7       	ldi	r20, 0x7E	; 126
    1802:	52 e4       	ldi	r21, 0x42	; 66
    1804:	c7 01       	movw	r24, r14
    1806:	b6 01       	movw	r22, r12
    1808:	e1 d2       	rcall	.+1474   	; 0x1dcc <__cmpsf2>
    180a:	88 23       	and	r24, r24
    180c:	2c f4       	brge	.+10     	; 0x1818 <note+0x48>
		i = 0;
    180e:	10 92 34 0f 	sts	0x0F34, r1	; 0x800f34 <i+0x1>
    1812:	10 92 33 0f 	sts	0x0F33, r1	; 0x800f33 <i>
    1816:	ae c0       	rjmp	.+348    	; 0x1974 <note+0x1a4>
	else if ((31.785*2<a) && (a<63.575*2))							//1
    1818:	2e ea       	ldi	r18, 0xAE	; 174
    181a:	37 e4       	ldi	r19, 0x47	; 71
    181c:	4e e7       	ldi	r20, 0x7E	; 126
    181e:	52 e4       	ldi	r21, 0x42	; 66
    1820:	c7 01       	movw	r24, r14
    1822:	b6 01       	movw	r22, r12
    1824:	1d d4       	rcall	.+2106   	; 0x2060 <__gesf2>
    1826:	18 16       	cp	r1, r24
    1828:	84 f4       	brge	.+32     	; 0x184a <note+0x7a>
    182a:	2d ec       	ldi	r18, 0xCD	; 205
    182c:	3c e4       	ldi	r19, 0x4C	; 76
    182e:	4e ef       	ldi	r20, 0xFE	; 254
    1830:	52 e4       	ldi	r21, 0x42	; 66
    1832:	c7 01       	movw	r24, r14
    1834:	b6 01       	movw	r22, r12
    1836:	ca d2       	rcall	.+1428   	; 0x1dcc <__cmpsf2>
    1838:	88 23       	and	r24, r24
    183a:	3c f4       	brge	.+14     	; 0x184a <note+0x7a>
		i = 1;
    183c:	81 e0       	ldi	r24, 0x01	; 1
    183e:	90 e0       	ldi	r25, 0x00	; 0
    1840:	90 93 34 0f 	sts	0x0F34, r25	; 0x800f34 <i+0x1>
    1844:	80 93 33 0f 	sts	0x0F33, r24	; 0x800f33 <i>
    1848:	95 c0       	rjmp	.+298    	; 0x1974 <note+0x1a4>
	else if ((31.785*pow(2,2)<a) && (a<63.575*pow(2,2)))           //2
    184a:	2e ea       	ldi	r18, 0xAE	; 174
    184c:	37 e4       	ldi	r19, 0x47	; 71
    184e:	4e ef       	ldi	r20, 0xFE	; 254
    1850:	52 e4       	ldi	r21, 0x42	; 66
    1852:	c7 01       	movw	r24, r14
    1854:	b6 01       	movw	r22, r12
    1856:	04 d4       	rcall	.+2056   	; 0x2060 <__gesf2>
    1858:	18 16       	cp	r1, r24
    185a:	84 f4       	brge	.+32     	; 0x187c <note+0xac>
    185c:	2d ec       	ldi	r18, 0xCD	; 205
    185e:	3c e4       	ldi	r19, 0x4C	; 76
    1860:	4e e7       	ldi	r20, 0x7E	; 126
    1862:	53 e4       	ldi	r21, 0x43	; 67
    1864:	c7 01       	movw	r24, r14
    1866:	b6 01       	movw	r22, r12
    1868:	b1 d2       	rcall	.+1378   	; 0x1dcc <__cmpsf2>
    186a:	88 23       	and	r24, r24
    186c:	3c f4       	brge	.+14     	; 0x187c <note+0xac>
		i = 2;
    186e:	82 e0       	ldi	r24, 0x02	; 2
    1870:	90 e0       	ldi	r25, 0x00	; 0
    1872:	90 93 34 0f 	sts	0x0F34, r25	; 0x800f34 <i+0x1>
    1876:	80 93 33 0f 	sts	0x0F33, r24	; 0x800f33 <i>
	else if ((31.785*pow(2,3)<a) && (a<63.575*pow(2,3)))           //3
    187a:	7c c0       	rjmp	.+248    	; 0x1974 <note+0x1a4>
    187c:	2e ea       	ldi	r18, 0xAE	; 174
    187e:	37 e4       	ldi	r19, 0x47	; 71
    1880:	4e e7       	ldi	r20, 0x7E	; 126
    1882:	53 e4       	ldi	r21, 0x43	; 67
    1884:	c7 01       	movw	r24, r14
    1886:	b6 01       	movw	r22, r12
    1888:	eb d3       	rcall	.+2006   	; 0x2060 <__gesf2>
    188a:	18 16       	cp	r1, r24
    188c:	84 f4       	brge	.+32     	; 0x18ae <note+0xde>
    188e:	2d ec       	ldi	r18, 0xCD	; 205
    1890:	3c e4       	ldi	r19, 0x4C	; 76
    1892:	4e ef       	ldi	r20, 0xFE	; 254
    1894:	53 e4       	ldi	r21, 0x43	; 67
    1896:	c7 01       	movw	r24, r14
    1898:	b6 01       	movw	r22, r12
    189a:	98 d2       	rcall	.+1328   	; 0x1dcc <__cmpsf2>
    189c:	88 23       	and	r24, r24
    189e:	3c f4       	brge	.+14     	; 0x18ae <note+0xde>
		i = 3;
    18a0:	83 e0       	ldi	r24, 0x03	; 3
    18a2:	90 e0       	ldi	r25, 0x00	; 0
    18a4:	90 93 34 0f 	sts	0x0F34, r25	; 0x800f34 <i+0x1>
    18a8:	80 93 33 0f 	sts	0x0F33, r24	; 0x800f33 <i>
	else if ((31.785*pow(2,4)<a) && (a<63.575*pow(2,4)))           //4
    18ac:	63 c0       	rjmp	.+198    	; 0x1974 <note+0x1a4>
    18ae:	2e ea       	ldi	r18, 0xAE	; 174
    18b0:	37 e4       	ldi	r19, 0x47	; 71
    18b2:	4e ef       	ldi	r20, 0xFE	; 254
    18b4:	53 e4       	ldi	r21, 0x43	; 67
    18b6:	c7 01       	movw	r24, r14
    18b8:	b6 01       	movw	r22, r12
    18ba:	d2 d3       	rcall	.+1956   	; 0x2060 <__gesf2>
    18bc:	18 16       	cp	r1, r24
    18be:	84 f4       	brge	.+32     	; 0x18e0 <note+0x110>
    18c0:	2d ec       	ldi	r18, 0xCD	; 205
    18c2:	3c e4       	ldi	r19, 0x4C	; 76
    18c4:	4e e7       	ldi	r20, 0x7E	; 126
    18c6:	54 e4       	ldi	r21, 0x44	; 68
    18c8:	c7 01       	movw	r24, r14
    18ca:	b6 01       	movw	r22, r12
    18cc:	7f d2       	rcall	.+1278   	; 0x1dcc <__cmpsf2>
    18ce:	88 23       	and	r24, r24
    18d0:	3c f4       	brge	.+14     	; 0x18e0 <note+0x110>
		i = 4;
    18d2:	84 e0       	ldi	r24, 0x04	; 4
    18d4:	90 e0       	ldi	r25, 0x00	; 0
    18d6:	90 93 34 0f 	sts	0x0F34, r25	; 0x800f34 <i+0x1>
    18da:	80 93 33 0f 	sts	0x0F33, r24	; 0x800f33 <i>
	else if ((31.785*pow(2,5)<a) && (a<63.575*pow(2,5)))           //5
    18de:	4a c0       	rjmp	.+148    	; 0x1974 <note+0x1a4>
    18e0:	2e ea       	ldi	r18, 0xAE	; 174
    18e2:	37 e4       	ldi	r19, 0x47	; 71
    18e4:	4e e7       	ldi	r20, 0x7E	; 126
    18e6:	54 e4       	ldi	r21, 0x44	; 68
    18e8:	c7 01       	movw	r24, r14
    18ea:	b6 01       	movw	r22, r12
    18ec:	b9 d3       	rcall	.+1906   	; 0x2060 <__gesf2>
    18ee:	18 16       	cp	r1, r24
    18f0:	84 f4       	brge	.+32     	; 0x1912 <note+0x142>
    18f2:	2d ec       	ldi	r18, 0xCD	; 205
    18f4:	3c e4       	ldi	r19, 0x4C	; 76
    18f6:	4e ef       	ldi	r20, 0xFE	; 254
    18f8:	54 e4       	ldi	r21, 0x44	; 68
    18fa:	c7 01       	movw	r24, r14
    18fc:	b6 01       	movw	r22, r12
    18fe:	66 d2       	rcall	.+1228   	; 0x1dcc <__cmpsf2>
    1900:	88 23       	and	r24, r24
    1902:	3c f4       	brge	.+14     	; 0x1912 <note+0x142>
		i = 5;
    1904:	85 e0       	ldi	r24, 0x05	; 5
    1906:	90 e0       	ldi	r25, 0x00	; 0
    1908:	90 93 34 0f 	sts	0x0F34, r25	; 0x800f34 <i+0x1>
    190c:	80 93 33 0f 	sts	0x0F33, r24	; 0x800f33 <i>
	else if ((31.785*pow(2,6)<a) && (a<63.575*pow(2,6)))           //6
    1910:	31 c0       	rjmp	.+98     	; 0x1974 <note+0x1a4>
    1912:	2e ea       	ldi	r18, 0xAE	; 174
    1914:	37 e4       	ldi	r19, 0x47	; 71
    1916:	4e ef       	ldi	r20, 0xFE	; 254
    1918:	54 e4       	ldi	r21, 0x44	; 68
    191a:	c7 01       	movw	r24, r14
    191c:	b6 01       	movw	r22, r12
    191e:	a0 d3       	rcall	.+1856   	; 0x2060 <__gesf2>
    1920:	18 16       	cp	r1, r24
    1922:	84 f4       	brge	.+32     	; 0x1944 <note+0x174>
    1924:	2d ec       	ldi	r18, 0xCD	; 205
    1926:	3c e4       	ldi	r19, 0x4C	; 76
    1928:	4e e7       	ldi	r20, 0x7E	; 126
    192a:	55 e4       	ldi	r21, 0x45	; 69
    192c:	c7 01       	movw	r24, r14
    192e:	b6 01       	movw	r22, r12
    1930:	4d d2       	rcall	.+1178   	; 0x1dcc <__cmpsf2>
    1932:	88 23       	and	r24, r24
		i = 6;
    1934:	3c f4       	brge	.+14     	; 0x1944 <note+0x174>
    1936:	86 e0       	ldi	r24, 0x06	; 6
    1938:	90 e0       	ldi	r25, 0x00	; 0
    193a:	90 93 34 0f 	sts	0x0F34, r25	; 0x800f34 <i+0x1>
    193e:	80 93 33 0f 	sts	0x0F33, r24	; 0x800f33 <i>
	else if ((31.785*pow(2,7)<a) && (a<63.575*pow(2,7)))           //7
    1942:	18 c0       	rjmp	.+48     	; 0x1974 <note+0x1a4>
    1944:	2e ea       	ldi	r18, 0xAE	; 174
    1946:	37 e4       	ldi	r19, 0x47	; 71
    1948:	4e e7       	ldi	r20, 0x7E	; 126
    194a:	55 e4       	ldi	r21, 0x45	; 69
    194c:	c7 01       	movw	r24, r14
    194e:	b6 01       	movw	r22, r12
    1950:	87 d3       	rcall	.+1806   	; 0x2060 <__gesf2>
    1952:	18 16       	cp	r1, r24
    1954:	7c f4       	brge	.+30     	; 0x1974 <note+0x1a4>
    1956:	2d ec       	ldi	r18, 0xCD	; 205
    1958:	3c e4       	ldi	r19, 0x4C	; 76
    195a:	4e ef       	ldi	r20, 0xFE	; 254
    195c:	55 e4       	ldi	r21, 0x45	; 69
    195e:	c7 01       	movw	r24, r14
    1960:	b6 01       	movw	r22, r12
    1962:	34 d2       	rcall	.+1128   	; 0x1dcc <__cmpsf2>
    1964:	88 23       	and	r24, r24
		i = 7;
    1966:	34 f4       	brge	.+12     	; 0x1974 <note+0x1a4>
    1968:	87 e0       	ldi	r24, 0x07	; 7
    196a:	90 e0       	ldi	r25, 0x00	; 0
    196c:	90 93 34 0f 	sts	0x0F34, r25	; 0x800f34 <i+0x1>
	



	if ((31.785*pow(2,i)<a) && (a<33.675*pow(2,i)))                       // 
    1970:	80 93 33 0f 	sts	0x0F33, r24	; 0x800f33 <i>
    1974:	60 91 33 0f 	lds	r22, 0x0F33	; 0x800f33 <i>
    1978:	70 91 34 0f 	lds	r23, 0x0F34	; 0x800f34 <i+0x1>
    197c:	07 2e       	mov	r0, r23
    197e:	00 0c       	add	r0, r0
    1980:	88 0b       	sbc	r24, r24
    1982:	99 0b       	sbc	r25, r25
    1984:	bd d2       	rcall	.+1402   	; 0x1f00 <__floatsisf>
    1986:	9b 01       	movw	r18, r22
    1988:	ac 01       	movw	r20, r24
    198a:	60 e0       	ldi	r22, 0x00	; 0
    198c:	70 e0       	ldi	r23, 0x00	; 0
    198e:	80 e0       	ldi	r24, 0x00	; 0
    1990:	90 e4       	ldi	r25, 0x40	; 64
    1992:	cd d3       	rcall	.+1946   	; 0x212e <pow>
    1994:	4b 01       	movw	r8, r22
    1996:	5c 01       	movw	r10, r24
    1998:	2e ea       	ldi	r18, 0xAE	; 174
    199a:	37 e4       	ldi	r19, 0x47	; 71
    199c:	4e ef       	ldi	r20, 0xFE	; 254
    199e:	51 e4       	ldi	r21, 0x41	; 65
    19a0:	63 d3       	rcall	.+1734   	; 0x2068 <__mulsf3>
    19a2:	9b 01       	movw	r18, r22
    19a4:	ac 01       	movw	r20, r24
    19a6:	c7 01       	movw	r24, r14
    19a8:	b6 01       	movw	r22, r12
    19aa:	5a d3       	rcall	.+1716   	; 0x2060 <__gesf2>
    19ac:	18 16       	cp	r1, r24
    19ae:	ac f4       	brge	.+42     	; 0x19da <note+0x20a>
    19b0:	23 e3       	ldi	r18, 0x33	; 51
    19b2:	33 eb       	ldi	r19, 0xB3	; 179
    19b4:	46 e0       	ldi	r20, 0x06	; 6
    19b6:	52 e4       	ldi	r21, 0x42	; 66
    19b8:	c5 01       	movw	r24, r10
    19ba:	b4 01       	movw	r22, r8
    19bc:	55 d3       	rcall	.+1706   	; 0x2068 <__mulsf3>
    19be:	9b 01       	movw	r18, r22
    19c0:	ac 01       	movw	r20, r24
    19c2:	c7 01       	movw	r24, r14
    19c4:	b6 01       	movw	r22, r12
    19c6:	02 d2       	rcall	.+1028   	; 0x1dcc <__cmpsf2>
		result = 1;
    19c8:	88 23       	and	r24, r24
    19ca:	3c f4       	brge	.+14     	; 0x19da <note+0x20a>
    19cc:	81 e0       	ldi	r24, 0x01	; 1
    19ce:	90 e0       	ldi	r25, 0x00	; 0
    19d0:	90 93 1b 01 	sts	0x011B, r25	; 0x80011b <result+0x1>
	else if ((33.675*pow(2,i)<a) && (a<35.68*pow(2,i)))						// #
    19d4:	80 93 1a 01 	sts	0x011A, r24	; 0x80011a <result>
    19d8:	87 c1       	rjmp	.+782    	; 0x1ce8 <note+0x518>
    19da:	23 e3       	ldi	r18, 0x33	; 51
    19dc:	33 eb       	ldi	r19, 0xB3	; 179
    19de:	46 e0       	ldi	r20, 0x06	; 6
    19e0:	52 e4       	ldi	r21, 0x42	; 66
    19e2:	c5 01       	movw	r24, r10
    19e4:	b4 01       	movw	r22, r8
    19e6:	40 d3       	rcall	.+1664   	; 0x2068 <__mulsf3>
    19e8:	9b 01       	movw	r18, r22
    19ea:	ac 01       	movw	r20, r24
    19ec:	c7 01       	movw	r24, r14
    19ee:	b6 01       	movw	r22, r12
    19f0:	37 d3       	rcall	.+1646   	; 0x2060 <__gesf2>
    19f2:	18 16       	cp	r1, r24
    19f4:	ac f4       	brge	.+42     	; 0x1a20 <note+0x250>
    19f6:	22 e5       	ldi	r18, 0x52	; 82
    19f8:	38 eb       	ldi	r19, 0xB8	; 184
    19fa:	4e e0       	ldi	r20, 0x0E	; 14
    19fc:	52 e4       	ldi	r21, 0x42	; 66
    19fe:	c5 01       	movw	r24, r10
    1a00:	b4 01       	movw	r22, r8
    1a02:	32 d3       	rcall	.+1636   	; 0x2068 <__mulsf3>
    1a04:	9b 01       	movw	r18, r22
    1a06:	ac 01       	movw	r20, r24
    1a08:	c7 01       	movw	r24, r14
    1a0a:	b6 01       	movw	r22, r12
    1a0c:	df d1       	rcall	.+958    	; 0x1dcc <__cmpsf2>
		result = 2;
    1a0e:	88 23       	and	r24, r24
    1a10:	3c f4       	brge	.+14     	; 0x1a20 <note+0x250>
    1a12:	82 e0       	ldi	r24, 0x02	; 2
    1a14:	90 e0       	ldi	r25, 0x00	; 0
    1a16:	90 93 1b 01 	sts	0x011B, r25	; 0x80011b <result+0x1>
	else if ((35.68*pow(2,i)<a) && (a<37.8*pow(2,i)))						// 
    1a1a:	80 93 1a 01 	sts	0x011A, r24	; 0x80011a <result>
    1a1e:	64 c1       	rjmp	.+712    	; 0x1ce8 <note+0x518>
    1a20:	22 e5       	ldi	r18, 0x52	; 82
    1a22:	38 eb       	ldi	r19, 0xB8	; 184
    1a24:	4e e0       	ldi	r20, 0x0E	; 14
    1a26:	52 e4       	ldi	r21, 0x42	; 66
    1a28:	c5 01       	movw	r24, r10
    1a2a:	b4 01       	movw	r22, r8
    1a2c:	1d d3       	rcall	.+1594   	; 0x2068 <__mulsf3>
    1a2e:	9b 01       	movw	r18, r22
    1a30:	ac 01       	movw	r20, r24
    1a32:	c7 01       	movw	r24, r14
    1a34:	b6 01       	movw	r22, r12
    1a36:	14 d3       	rcall	.+1576   	; 0x2060 <__gesf2>
    1a38:	18 16       	cp	r1, r24
    1a3a:	ac f4       	brge	.+42     	; 0x1a66 <note+0x296>
    1a3c:	23 e3       	ldi	r18, 0x33	; 51
    1a3e:	33 e3       	ldi	r19, 0x33	; 51
    1a40:	47 e1       	ldi	r20, 0x17	; 23
    1a42:	52 e4       	ldi	r21, 0x42	; 66
    1a44:	c5 01       	movw	r24, r10
    1a46:	b4 01       	movw	r22, r8
    1a48:	0f d3       	rcall	.+1566   	; 0x2068 <__mulsf3>
    1a4a:	9b 01       	movw	r18, r22
    1a4c:	ac 01       	movw	r20, r24
    1a4e:	c7 01       	movw	r24, r14
    1a50:	b6 01       	movw	r22, r12
		result = 3;
    1a52:	bc d1       	rcall	.+888    	; 0x1dcc <__cmpsf2>
    1a54:	88 23       	and	r24, r24
    1a56:	3c f4       	brge	.+14     	; 0x1a66 <note+0x296>
    1a58:	83 e0       	ldi	r24, 0x03	; 3
    1a5a:	90 e0       	ldi	r25, 0x00	; 0
    1a5c:	90 93 1b 01 	sts	0x011B, r25	; 0x80011b <result+0x1>
	else if ((37.8*pow(2,i)<a) && (a<40.045*pow(2,i)))						// #
    1a60:	80 93 1a 01 	sts	0x011A, r24	; 0x80011a <result>
    1a64:	41 c1       	rjmp	.+642    	; 0x1ce8 <note+0x518>
    1a66:	23 e3       	ldi	r18, 0x33	; 51
    1a68:	33 e3       	ldi	r19, 0x33	; 51
    1a6a:	47 e1       	ldi	r20, 0x17	; 23
    1a6c:	52 e4       	ldi	r21, 0x42	; 66
    1a6e:	c5 01       	movw	r24, r10
    1a70:	b4 01       	movw	r22, r8
    1a72:	fa d2       	rcall	.+1524   	; 0x2068 <__mulsf3>
    1a74:	9b 01       	movw	r18, r22
    1a76:	ac 01       	movw	r20, r24
    1a78:	c7 01       	movw	r24, r14
    1a7a:	b6 01       	movw	r22, r12
    1a7c:	f1 d2       	rcall	.+1506   	; 0x2060 <__gesf2>
    1a7e:	18 16       	cp	r1, r24
    1a80:	ac f4       	brge	.+42     	; 0x1aac <note+0x2dc>
    1a82:	24 e1       	ldi	r18, 0x14	; 20
    1a84:	3e e2       	ldi	r19, 0x2E	; 46
    1a86:	40 e2       	ldi	r20, 0x20	; 32
    1a88:	52 e4       	ldi	r21, 0x42	; 66
    1a8a:	c5 01       	movw	r24, r10
    1a8c:	b4 01       	movw	r22, r8
    1a8e:	ec d2       	rcall	.+1496   	; 0x2068 <__mulsf3>
    1a90:	9b 01       	movw	r18, r22
    1a92:	ac 01       	movw	r20, r24
    1a94:	c7 01       	movw	r24, r14
    1a96:	b6 01       	movw	r22, r12
		result = 4;								
    1a98:	99 d1       	rcall	.+818    	; 0x1dcc <__cmpsf2>
    1a9a:	88 23       	and	r24, r24
    1a9c:	3c f4       	brge	.+14     	; 0x1aac <note+0x2dc>
    1a9e:	84 e0       	ldi	r24, 0x04	; 4
    1aa0:	90 e0       	ldi	r25, 0x00	; 0
    1aa2:	90 93 1b 01 	sts	0x011B, r25	; 0x80011b <result+0x1>
	else if ((40.045*pow(2,i)<a) && (a<42.425*pow(2,i)))					// 
    1aa6:	80 93 1a 01 	sts	0x011A, r24	; 0x80011a <result>
    1aaa:	1e c1       	rjmp	.+572    	; 0x1ce8 <note+0x518>
    1aac:	24 e1       	ldi	r18, 0x14	; 20
    1aae:	3e e2       	ldi	r19, 0x2E	; 46
    1ab0:	40 e2       	ldi	r20, 0x20	; 32
    1ab2:	52 e4       	ldi	r21, 0x42	; 66
    1ab4:	c5 01       	movw	r24, r10
    1ab6:	b4 01       	movw	r22, r8
    1ab8:	d7 d2       	rcall	.+1454   	; 0x2068 <__mulsf3>
    1aba:	9b 01       	movw	r18, r22
    1abc:	ac 01       	movw	r20, r24
    1abe:	c7 01       	movw	r24, r14
    1ac0:	b6 01       	movw	r22, r12
    1ac2:	ce d2       	rcall	.+1436   	; 0x2060 <__gesf2>
    1ac4:	18 16       	cp	r1, r24
    1ac6:	ac f4       	brge	.+42     	; 0x1af2 <note+0x322>
    1ac8:	23 e3       	ldi	r18, 0x33	; 51
    1aca:	33 eb       	ldi	r19, 0xB3	; 179
    1acc:	49 e2       	ldi	r20, 0x29	; 41
    1ace:	52 e4       	ldi	r21, 0x42	; 66
    1ad0:	c5 01       	movw	r24, r10
    1ad2:	b4 01       	movw	r22, r8
    1ad4:	c9 d2       	rcall	.+1426   	; 0x2068 <__mulsf3>
    1ad6:	9b 01       	movw	r18, r22
    1ad8:	ac 01       	movw	r20, r24
    1ada:	c7 01       	movw	r24, r14
    1adc:	b6 01       	movw	r22, r12
		result = 5;
    1ade:	76 d1       	rcall	.+748    	; 0x1dcc <__cmpsf2>
    1ae0:	88 23       	and	r24, r24
    1ae2:	3c f4       	brge	.+14     	; 0x1af2 <note+0x322>
    1ae4:	85 e0       	ldi	r24, 0x05	; 5
    1ae6:	90 e0       	ldi	r25, 0x00	; 0
    1ae8:	90 93 1b 01 	sts	0x011B, r25	; 0x80011b <result+0x1>
	else if ((42.425*pow(2,i)<a) && (a<44.95*pow(2,i)))                    // 
    1aec:	80 93 1a 01 	sts	0x011A, r24	; 0x80011a <result>
    1af0:	fb c0       	rjmp	.+502    	; 0x1ce8 <note+0x518>
    1af2:	23 e3       	ldi	r18, 0x33	; 51
    1af4:	33 eb       	ldi	r19, 0xB3	; 179
    1af6:	49 e2       	ldi	r20, 0x29	; 41
    1af8:	52 e4       	ldi	r21, 0x42	; 66
    1afa:	c5 01       	movw	r24, r10
    1afc:	b4 01       	movw	r22, r8
    1afe:	b4 d2       	rcall	.+1384   	; 0x2068 <__mulsf3>
    1b00:	9b 01       	movw	r18, r22
    1b02:	ac 01       	movw	r20, r24
    1b04:	c7 01       	movw	r24, r14
    1b06:	b6 01       	movw	r22, r12
    1b08:	ab d2       	rcall	.+1366   	; 0x2060 <__gesf2>
    1b0a:	18 16       	cp	r1, r24
    1b0c:	ac f4       	brge	.+42     	; 0x1b38 <note+0x368>
    1b0e:	2d ec       	ldi	r18, 0xCD	; 205
    1b10:	3c ec       	ldi	r19, 0xCC	; 204
    1b12:	43 e3       	ldi	r20, 0x33	; 51
    1b14:	52 e4       	ldi	r21, 0x42	; 66
    1b16:	c5 01       	movw	r24, r10
    1b18:	b4 01       	movw	r22, r8
    1b1a:	a6 d2       	rcall	.+1356   	; 0x2068 <__mulsf3>
    1b1c:	9b 01       	movw	r18, r22
    1b1e:	ac 01       	movw	r20, r24
    1b20:	c7 01       	movw	r24, r14
    1b22:	b6 01       	movw	r22, r12
		result = 6;
    1b24:	53 d1       	rcall	.+678    	; 0x1dcc <__cmpsf2>
    1b26:	88 23       	and	r24, r24
    1b28:	3c f4       	brge	.+14     	; 0x1b38 <note+0x368>
    1b2a:	86 e0       	ldi	r24, 0x06	; 6
    1b2c:	90 e0       	ldi	r25, 0x00	; 0
    1b2e:	90 93 1b 01 	sts	0x011B, r25	; 0x80011b <result+0x1>
	else if ((44.95*pow(2,i)<a) && (a<47.625*pow(2,i)))                    // #
    1b32:	80 93 1a 01 	sts	0x011A, r24	; 0x80011a <result>
    1b36:	d8 c0       	rjmp	.+432    	; 0x1ce8 <note+0x518>
    1b38:	2d ec       	ldi	r18, 0xCD	; 205
    1b3a:	3c ec       	ldi	r19, 0xCC	; 204
    1b3c:	43 e3       	ldi	r20, 0x33	; 51
    1b3e:	52 e4       	ldi	r21, 0x42	; 66
    1b40:	c5 01       	movw	r24, r10
    1b42:	b4 01       	movw	r22, r8
    1b44:	91 d2       	rcall	.+1314   	; 0x2068 <__mulsf3>
    1b46:	9b 01       	movw	r18, r22
    1b48:	ac 01       	movw	r20, r24
    1b4a:	c7 01       	movw	r24, r14
    1b4c:	b6 01       	movw	r22, r12
    1b4e:	88 d2       	rcall	.+1296   	; 0x2060 <__gesf2>
    1b50:	18 16       	cp	r1, r24
    1b52:	ac f4       	brge	.+42     	; 0x1b7e <note+0x3ae>
    1b54:	20 e0       	ldi	r18, 0x00	; 0
    1b56:	30 e8       	ldi	r19, 0x80	; 128
    1b58:	4e e3       	ldi	r20, 0x3E	; 62
    1b5a:	52 e4       	ldi	r21, 0x42	; 66
    1b5c:	c5 01       	movw	r24, r10
    1b5e:	b4 01       	movw	r22, r8
    1b60:	83 d2       	rcall	.+1286   	; 0x2068 <__mulsf3>
    1b62:	9b 01       	movw	r18, r22
    1b64:	ac 01       	movw	r20, r24
    1b66:	c7 01       	movw	r24, r14
    1b68:	b6 01       	movw	r22, r12
		result = 7;
    1b6a:	30 d1       	rcall	.+608    	; 0x1dcc <__cmpsf2>
    1b6c:	88 23       	and	r24, r24
    1b6e:	3c f4       	brge	.+14     	; 0x1b7e <note+0x3ae>
    1b70:	87 e0       	ldi	r24, 0x07	; 7
    1b72:	90 e0       	ldi	r25, 0x00	; 0
    1b74:	90 93 1b 01 	sts	0x011B, r25	; 0x80011b <result+0x1>
	else if ((47.625*pow(2,i)<a) && (a<50.455*pow(2,i)))                   // 
    1b78:	80 93 1a 01 	sts	0x011A, r24	; 0x80011a <result>
    1b7c:	b5 c0       	rjmp	.+362    	; 0x1ce8 <note+0x518>
    1b7e:	20 e0       	ldi	r18, 0x00	; 0
    1b80:	30 e8       	ldi	r19, 0x80	; 128
    1b82:	4e e3       	ldi	r20, 0x3E	; 62
    1b84:	52 e4       	ldi	r21, 0x42	; 66
    1b86:	c5 01       	movw	r24, r10
    1b88:	b4 01       	movw	r22, r8
    1b8a:	6e d2       	rcall	.+1244   	; 0x2068 <__mulsf3>
    1b8c:	9b 01       	movw	r18, r22
    1b8e:	ac 01       	movw	r20, r24
    1b90:	c7 01       	movw	r24, r14
    1b92:	b6 01       	movw	r22, r12
    1b94:	65 d2       	rcall	.+1226   	; 0x2060 <__gesf2>
    1b96:	18 16       	cp	r1, r24
    1b98:	ac f4       	brge	.+42     	; 0x1bc4 <note+0x3f4>
    1b9a:	2c ee       	ldi	r18, 0xEC	; 236
    1b9c:	31 ed       	ldi	r19, 0xD1	; 209
    1b9e:	49 e4       	ldi	r20, 0x49	; 73
    1ba0:	52 e4       	ldi	r21, 0x42	; 66
    1ba2:	c5 01       	movw	r24, r10
    1ba4:	b4 01       	movw	r22, r8
    1ba6:	60 d2       	rcall	.+1216   	; 0x2068 <__mulsf3>
    1ba8:	9b 01       	movw	r18, r22
    1baa:	ac 01       	movw	r20, r24
    1bac:	c7 01       	movw	r24, r14
    1bae:	b6 01       	movw	r22, r12
		result = 8;
    1bb0:	0d d1       	rcall	.+538    	; 0x1dcc <__cmpsf2>
    1bb2:	88 23       	and	r24, r24
    1bb4:	3c f4       	brge	.+14     	; 0x1bc4 <note+0x3f4>
    1bb6:	88 e0       	ldi	r24, 0x08	; 8
    1bb8:	90 e0       	ldi	r25, 0x00	; 0
    1bba:	90 93 1b 01 	sts	0x011B, r25	; 0x80011b <result+0x1>
	else if ((50.455*pow(2,i)<a) && (a<53.455*pow(2,i)))                   // #
    1bbe:	80 93 1a 01 	sts	0x011A, r24	; 0x80011a <result>
    1bc2:	92 c0       	rjmp	.+292    	; 0x1ce8 <note+0x518>
    1bc4:	2c ee       	ldi	r18, 0xEC	; 236
    1bc6:	31 ed       	ldi	r19, 0xD1	; 209
    1bc8:	49 e4       	ldi	r20, 0x49	; 73
    1bca:	52 e4       	ldi	r21, 0x42	; 66
    1bcc:	c5 01       	movw	r24, r10
    1bce:	b4 01       	movw	r22, r8
    1bd0:	4b d2       	rcall	.+1174   	; 0x2068 <__mulsf3>
    1bd2:	9b 01       	movw	r18, r22
    1bd4:	ac 01       	movw	r20, r24
    1bd6:	c7 01       	movw	r24, r14
    1bd8:	b6 01       	movw	r22, r12
    1bda:	42 d2       	rcall	.+1156   	; 0x2060 <__gesf2>
    1bdc:	18 16       	cp	r1, r24
    1bde:	ac f4       	brge	.+42     	; 0x1c0a <note+0x43a>
    1be0:	2c ee       	ldi	r18, 0xEC	; 236
    1be2:	31 ed       	ldi	r19, 0xD1	; 209
    1be4:	45 e5       	ldi	r20, 0x55	; 85
    1be6:	52 e4       	ldi	r21, 0x42	; 66
    1be8:	c5 01       	movw	r24, r10
    1bea:	b4 01       	movw	r22, r8
    1bec:	3d d2       	rcall	.+1146   	; 0x2068 <__mulsf3>
    1bee:	9b 01       	movw	r18, r22
    1bf0:	ac 01       	movw	r20, r24
    1bf2:	c7 01       	movw	r24, r14
		result = 9;
    1bf4:	b6 01       	movw	r22, r12
    1bf6:	ea d0       	rcall	.+468    	; 0x1dcc <__cmpsf2>
    1bf8:	88 23       	and	r24, r24
    1bfa:	3c f4       	brge	.+14     	; 0x1c0a <note+0x43a>
    1bfc:	89 e0       	ldi	r24, 0x09	; 9
    1bfe:	90 e0       	ldi	r25, 0x00	; 0
    1c00:	90 93 1b 01 	sts	0x011B, r25	; 0x80011b <result+0x1>
	else if ((53.455*pow(2,i)<a) && (a<56.635*pow(2,i)))                   // 
    1c04:	80 93 1a 01 	sts	0x011A, r24	; 0x80011a <result>
    1c08:	6f c0       	rjmp	.+222    	; 0x1ce8 <note+0x518>
    1c0a:	2c ee       	ldi	r18, 0xEC	; 236
    1c0c:	31 ed       	ldi	r19, 0xD1	; 209
    1c0e:	45 e5       	ldi	r20, 0x55	; 85
    1c10:	52 e4       	ldi	r21, 0x42	; 66
    1c12:	c5 01       	movw	r24, r10
    1c14:	b4 01       	movw	r22, r8
    1c16:	28 d2       	rcall	.+1104   	; 0x2068 <__mulsf3>
    1c18:	9b 01       	movw	r18, r22
    1c1a:	ac 01       	movw	r20, r24
    1c1c:	c7 01       	movw	r24, r14
    1c1e:	b6 01       	movw	r22, r12
    1c20:	1f d2       	rcall	.+1086   	; 0x2060 <__gesf2>
    1c22:	18 16       	cp	r1, r24
    1c24:	ac f4       	brge	.+42     	; 0x1c50 <note+0x480>
    1c26:	2d e3       	ldi	r18, 0x3D	; 61
    1c28:	3a e8       	ldi	r19, 0x8A	; 138
    1c2a:	42 e6       	ldi	r20, 0x62	; 98
    1c2c:	52 e4       	ldi	r21, 0x42	; 66
    1c2e:	c5 01       	movw	r24, r10
    1c30:	b4 01       	movw	r22, r8
    1c32:	1a d2       	rcall	.+1076   	; 0x2068 <__mulsf3>
    1c34:	9b 01       	movw	r18, r22
    1c36:	ac 01       	movw	r20, r24
    1c38:	c7 01       	movw	r24, r14
		result = 10;
    1c3a:	b6 01       	movw	r22, r12
    1c3c:	c7 d0       	rcall	.+398    	; 0x1dcc <__cmpsf2>
    1c3e:	88 23       	and	r24, r24
    1c40:	3c f4       	brge	.+14     	; 0x1c50 <note+0x480>
    1c42:	8a e0       	ldi	r24, 0x0A	; 10
    1c44:	90 e0       	ldi	r25, 0x00	; 0
	else if ((56.635*pow(2,i)<a) && (a<60.005*pow(2,i)))                   // #
    1c46:	90 93 1b 01 	sts	0x011B, r25	; 0x80011b <result+0x1>
    1c4a:	80 93 1a 01 	sts	0x011A, r24	; 0x80011a <result>
    1c4e:	4c c0       	rjmp	.+152    	; 0x1ce8 <note+0x518>
    1c50:	2d e3       	ldi	r18, 0x3D	; 61
    1c52:	3a e8       	ldi	r19, 0x8A	; 138
    1c54:	42 e6       	ldi	r20, 0x62	; 98
    1c56:	52 e4       	ldi	r21, 0x42	; 66
    1c58:	c5 01       	movw	r24, r10
    1c5a:	b4 01       	movw	r22, r8
    1c5c:	05 d2       	rcall	.+1034   	; 0x2068 <__mulsf3>
    1c5e:	9b 01       	movw	r18, r22
    1c60:	ac 01       	movw	r20, r24
    1c62:	c7 01       	movw	r24, r14
    1c64:	b6 01       	movw	r22, r12
    1c66:	fc d1       	rcall	.+1016   	; 0x2060 <__gesf2>
    1c68:	18 16       	cp	r1, r24
    1c6a:	ac f4       	brge	.+42     	; 0x1c96 <note+0x4c6>
    1c6c:	2f e1       	ldi	r18, 0x1F	; 31
    1c6e:	35 e0       	ldi	r19, 0x05	; 5
    1c70:	40 e7       	ldi	r20, 0x70	; 112
    1c72:	52 e4       	ldi	r21, 0x42	; 66
    1c74:	c5 01       	movw	r24, r10
    1c76:	b4 01       	movw	r22, r8
    1c78:	f7 d1       	rcall	.+1006   	; 0x2068 <__mulsf3>
    1c7a:	9b 01       	movw	r18, r22
    1c7c:	ac 01       	movw	r20, r24
    1c7e:	c7 01       	movw	r24, r14
    1c80:	b6 01       	movw	r22, r12
    1c82:	a4 d0       	rcall	.+328    	; 0x1dcc <__cmpsf2>
		result = 11;
    1c84:	88 23       	and	r24, r24
    1c86:	3c f4       	brge	.+14     	; 0x1c96 <note+0x4c6>
    1c88:	8b e0       	ldi	r24, 0x0B	; 11
    1c8a:	90 e0       	ldi	r25, 0x00	; 0
    1c8c:	90 93 1b 01 	sts	0x011B, r25	; 0x80011b <result+0x1>
    1c90:	80 93 1a 01 	sts	0x011A, r24	; 0x80011a <result>
	else if ((60.005*pow(2,i)<a) && (a<63.575*pow(2,i)))                   // 
    1c94:	29 c0       	rjmp	.+82     	; 0x1ce8 <note+0x518>
    1c96:	2f e1       	ldi	r18, 0x1F	; 31
    1c98:	35 e0       	ldi	r19, 0x05	; 5
    1c9a:	40 e7       	ldi	r20, 0x70	; 112
    1c9c:	52 e4       	ldi	r21, 0x42	; 66
    1c9e:	c5 01       	movw	r24, r10
    1ca0:	b4 01       	movw	r22, r8
    1ca2:	e2 d1       	rcall	.+964    	; 0x2068 <__mulsf3>
    1ca4:	9b 01       	movw	r18, r22
    1ca6:	ac 01       	movw	r20, r24
    1ca8:	c7 01       	movw	r24, r14
    1caa:	b6 01       	movw	r22, r12
    1cac:	d9 d1       	rcall	.+946    	; 0x2060 <__gesf2>
    1cae:	18 16       	cp	r1, r24
    1cb0:	ac f4       	brge	.+42     	; 0x1cdc <note+0x50c>
    1cb2:	2d ec       	ldi	r18, 0xCD	; 205
    1cb4:	3c e4       	ldi	r19, 0x4C	; 76
    1cb6:	4e e7       	ldi	r20, 0x7E	; 126
    1cb8:	52 e4       	ldi	r21, 0x42	; 66
    1cba:	c5 01       	movw	r24, r10
    1cbc:	b4 01       	movw	r22, r8
    1cbe:	d4 d1       	rcall	.+936    	; 0x2068 <__mulsf3>
    1cc0:	9b 01       	movw	r18, r22
    1cc2:	ac 01       	movw	r20, r24
    1cc4:	c7 01       	movw	r24, r14
    1cc6:	b6 01       	movw	r22, r12
    1cc8:	81 d0       	rcall	.+258    	; 0x1dcc <__cmpsf2>
    1cca:	88 23       	and	r24, r24
    1ccc:	3c f4       	brge	.+14     	; 0x1cdc <note+0x50c>
    1cce:	8c e0       	ldi	r24, 0x0C	; 12
    1cd0:	90 e0       	ldi	r25, 0x00	; 0
		result = 12;
    1cd2:	90 93 1b 01 	sts	0x011B, r25	; 0x80011b <result+0x1>
    1cd6:	80 93 1a 01 	sts	0x011A, r24	; 0x80011a <result>
    1cda:	06 c0       	rjmp	.+12     	; 0x1ce8 <note+0x518>
    1cdc:	8d e0       	ldi	r24, 0x0D	; 13
    1cde:	90 e0       	ldi	r25, 0x00	; 0
	else
		result = 13;
    1ce0:	90 93 1b 01 	sts	0x011B, r25	; 0x80011b <result+0x1>
    1ce4:	80 93 1a 01 	sts	0x011A, r24	; 0x80011a <result>
    1ce8:	80 91 1a 01 	lds	r24, 0x011A	; 0x80011a <result>
	
	return result;
    1cec:	90 91 1b 01 	lds	r25, 0x011B	; 0x80011b <result+0x1>
    1cf0:	ff 90       	pop	r15
    1cf2:	ef 90       	pop	r14
    1cf4:	df 90       	pop	r13
    1cf6:	cf 90       	pop	r12
    1cf8:	bf 90       	pop	r11
    1cfa:	af 90       	pop	r10
    1cfc:	9f 90       	pop	r9
    1cfe:	8f 90       	pop	r8
    1d00:	08 95       	ret

00001d02 <__subsf3>:
    1d02:	50 58       	subi	r21, 0x80	; 128

00001d04 <__addsf3>:
    1d04:	bb 27       	eor	r27, r27
    1d06:	aa 27       	eor	r26, r26
    1d08:	0e d0       	rcall	.+28     	; 0x1d26 <__addsf3x>
    1d0a:	70 c1       	rjmp	.+736    	; 0x1fec <__fp_round>
    1d0c:	61 d1       	rcall	.+706    	; 0x1fd0 <__fp_pscA>
    1d0e:	30 f0       	brcs	.+12     	; 0x1d1c <__addsf3+0x18>
    1d10:	66 d1       	rcall	.+716    	; 0x1fde <__fp_pscB>
    1d12:	20 f0       	brcs	.+8      	; 0x1d1c <__addsf3+0x18>
    1d14:	31 f4       	brne	.+12     	; 0x1d22 <__addsf3+0x1e>
    1d16:	9f 3f       	cpi	r25, 0xFF	; 255
    1d18:	11 f4       	brne	.+4      	; 0x1d1e <__addsf3+0x1a>
    1d1a:	1e f4       	brtc	.+6      	; 0x1d22 <__addsf3+0x1e>
    1d1c:	56 c1       	rjmp	.+684    	; 0x1fca <__fp_nan>
    1d1e:	0e f4       	brtc	.+2      	; 0x1d22 <__addsf3+0x1e>
    1d20:	e0 95       	com	r30
    1d22:	e7 fb       	bst	r30, 7
    1d24:	4c c1       	rjmp	.+664    	; 0x1fbe <__fp_inf>

00001d26 <__addsf3x>:
    1d26:	e9 2f       	mov	r30, r25
    1d28:	72 d1       	rcall	.+740    	; 0x200e <__fp_split3>
    1d2a:	80 f3       	brcs	.-32     	; 0x1d0c <__addsf3+0x8>
    1d2c:	ba 17       	cp	r27, r26
    1d2e:	62 07       	cpc	r22, r18
    1d30:	73 07       	cpc	r23, r19
    1d32:	84 07       	cpc	r24, r20
    1d34:	95 07       	cpc	r25, r21
    1d36:	18 f0       	brcs	.+6      	; 0x1d3e <__addsf3x+0x18>
    1d38:	71 f4       	brne	.+28     	; 0x1d56 <__addsf3x+0x30>
    1d3a:	9e f5       	brtc	.+102    	; 0x1da2 <__addsf3x+0x7c>
    1d3c:	8a c1       	rjmp	.+788    	; 0x2052 <__fp_zero>
    1d3e:	0e f4       	brtc	.+2      	; 0x1d42 <__addsf3x+0x1c>
    1d40:	e0 95       	com	r30
    1d42:	0b 2e       	mov	r0, r27
    1d44:	ba 2f       	mov	r27, r26
    1d46:	a0 2d       	mov	r26, r0
    1d48:	0b 01       	movw	r0, r22
    1d4a:	b9 01       	movw	r22, r18
    1d4c:	90 01       	movw	r18, r0
    1d4e:	0c 01       	movw	r0, r24
    1d50:	ca 01       	movw	r24, r20
    1d52:	a0 01       	movw	r20, r0
    1d54:	11 24       	eor	r1, r1
    1d56:	ff 27       	eor	r31, r31
    1d58:	59 1b       	sub	r21, r25
    1d5a:	99 f0       	breq	.+38     	; 0x1d82 <__addsf3x+0x5c>
    1d5c:	59 3f       	cpi	r21, 0xF9	; 249
    1d5e:	50 f4       	brcc	.+20     	; 0x1d74 <__addsf3x+0x4e>
    1d60:	50 3e       	cpi	r21, 0xE0	; 224
    1d62:	68 f1       	brcs	.+90     	; 0x1dbe <__addsf3x+0x98>
    1d64:	1a 16       	cp	r1, r26
    1d66:	f0 40       	sbci	r31, 0x00	; 0
    1d68:	a2 2f       	mov	r26, r18
    1d6a:	23 2f       	mov	r18, r19
    1d6c:	34 2f       	mov	r19, r20
    1d6e:	44 27       	eor	r20, r20
    1d70:	58 5f       	subi	r21, 0xF8	; 248
    1d72:	f3 cf       	rjmp	.-26     	; 0x1d5a <__addsf3x+0x34>
    1d74:	46 95       	lsr	r20
    1d76:	37 95       	ror	r19
    1d78:	27 95       	ror	r18
    1d7a:	a7 95       	ror	r26
    1d7c:	f0 40       	sbci	r31, 0x00	; 0
    1d7e:	53 95       	inc	r21
    1d80:	c9 f7       	brne	.-14     	; 0x1d74 <__addsf3x+0x4e>
    1d82:	7e f4       	brtc	.+30     	; 0x1da2 <__addsf3x+0x7c>
    1d84:	1f 16       	cp	r1, r31
    1d86:	ba 0b       	sbc	r27, r26
    1d88:	62 0b       	sbc	r22, r18
    1d8a:	73 0b       	sbc	r23, r19
    1d8c:	84 0b       	sbc	r24, r20
    1d8e:	ba f0       	brmi	.+46     	; 0x1dbe <__addsf3x+0x98>
    1d90:	91 50       	subi	r25, 0x01	; 1
    1d92:	a1 f0       	breq	.+40     	; 0x1dbc <__addsf3x+0x96>
    1d94:	ff 0f       	add	r31, r31
    1d96:	bb 1f       	adc	r27, r27
    1d98:	66 1f       	adc	r22, r22
    1d9a:	77 1f       	adc	r23, r23
    1d9c:	88 1f       	adc	r24, r24
    1d9e:	c2 f7       	brpl	.-16     	; 0x1d90 <__addsf3x+0x6a>
    1da0:	0e c0       	rjmp	.+28     	; 0x1dbe <__addsf3x+0x98>
    1da2:	ba 0f       	add	r27, r26
    1da4:	62 1f       	adc	r22, r18
    1da6:	73 1f       	adc	r23, r19
    1da8:	84 1f       	adc	r24, r20
    1daa:	48 f4       	brcc	.+18     	; 0x1dbe <__addsf3x+0x98>
    1dac:	87 95       	ror	r24
    1dae:	77 95       	ror	r23
    1db0:	67 95       	ror	r22
    1db2:	b7 95       	ror	r27
    1db4:	f7 95       	ror	r31
    1db6:	9e 3f       	cpi	r25, 0xFE	; 254
    1db8:	08 f0       	brcs	.+2      	; 0x1dbc <__addsf3x+0x96>
    1dba:	b3 cf       	rjmp	.-154    	; 0x1d22 <__addsf3+0x1e>
    1dbc:	93 95       	inc	r25
    1dbe:	88 0f       	add	r24, r24
    1dc0:	08 f0       	brcs	.+2      	; 0x1dc4 <__addsf3x+0x9e>
    1dc2:	99 27       	eor	r25, r25
    1dc4:	ee 0f       	add	r30, r30
    1dc6:	97 95       	ror	r25
    1dc8:	87 95       	ror	r24
    1dca:	08 95       	ret

00001dcc <__cmpsf2>:
    1dcc:	d4 d0       	rcall	.+424    	; 0x1f76 <__fp_cmp>
    1dce:	08 f4       	brcc	.+2      	; 0x1dd2 <__cmpsf2+0x6>
    1dd0:	81 e0       	ldi	r24, 0x01	; 1
    1dd2:	08 95       	ret

00001dd4 <__divsf3>:
    1dd4:	0c d0       	rcall	.+24     	; 0x1dee <__divsf3x>
    1dd6:	0a c1       	rjmp	.+532    	; 0x1fec <__fp_round>
    1dd8:	02 d1       	rcall	.+516    	; 0x1fde <__fp_pscB>
    1dda:	40 f0       	brcs	.+16     	; 0x1dec <__divsf3+0x18>
    1ddc:	f9 d0       	rcall	.+498    	; 0x1fd0 <__fp_pscA>
    1dde:	30 f0       	brcs	.+12     	; 0x1dec <__divsf3+0x18>
    1de0:	21 f4       	brne	.+8      	; 0x1dea <__divsf3+0x16>
    1de2:	5f 3f       	cpi	r21, 0xFF	; 255
    1de4:	19 f0       	breq	.+6      	; 0x1dec <__divsf3+0x18>
    1de6:	eb c0       	rjmp	.+470    	; 0x1fbe <__fp_inf>
    1de8:	51 11       	cpse	r21, r1
    1dea:	34 c1       	rjmp	.+616    	; 0x2054 <__fp_szero>
    1dec:	ee c0       	rjmp	.+476    	; 0x1fca <__fp_nan>

00001dee <__divsf3x>:
    1dee:	0f d1       	rcall	.+542    	; 0x200e <__fp_split3>
    1df0:	98 f3       	brcs	.-26     	; 0x1dd8 <__divsf3+0x4>

00001df2 <__divsf3_pse>:
    1df2:	99 23       	and	r25, r25
    1df4:	c9 f3       	breq	.-14     	; 0x1de8 <__divsf3+0x14>
    1df6:	55 23       	and	r21, r21
    1df8:	b1 f3       	breq	.-20     	; 0x1de6 <__divsf3+0x12>
    1dfa:	95 1b       	sub	r25, r21
    1dfc:	55 0b       	sbc	r21, r21
    1dfe:	bb 27       	eor	r27, r27
    1e00:	aa 27       	eor	r26, r26
    1e02:	62 17       	cp	r22, r18
    1e04:	73 07       	cpc	r23, r19
    1e06:	84 07       	cpc	r24, r20
    1e08:	38 f0       	brcs	.+14     	; 0x1e18 <__divsf3_pse+0x26>
    1e0a:	9f 5f       	subi	r25, 0xFF	; 255
    1e0c:	5f 4f       	sbci	r21, 0xFF	; 255
    1e0e:	22 0f       	add	r18, r18
    1e10:	33 1f       	adc	r19, r19
    1e12:	44 1f       	adc	r20, r20
    1e14:	aa 1f       	adc	r26, r26
    1e16:	a9 f3       	breq	.-22     	; 0x1e02 <__divsf3_pse+0x10>
    1e18:	33 d0       	rcall	.+102    	; 0x1e80 <__divsf3_pse+0x8e>
    1e1a:	0e 2e       	mov	r0, r30
    1e1c:	3a f0       	brmi	.+14     	; 0x1e2c <__divsf3_pse+0x3a>
    1e1e:	e0 e8       	ldi	r30, 0x80	; 128
    1e20:	30 d0       	rcall	.+96     	; 0x1e82 <__divsf3_pse+0x90>
    1e22:	91 50       	subi	r25, 0x01	; 1
    1e24:	50 40       	sbci	r21, 0x00	; 0
    1e26:	e6 95       	lsr	r30
    1e28:	00 1c       	adc	r0, r0
    1e2a:	ca f7       	brpl	.-14     	; 0x1e1e <__divsf3_pse+0x2c>
    1e2c:	29 d0       	rcall	.+82     	; 0x1e80 <__divsf3_pse+0x8e>
    1e2e:	fe 2f       	mov	r31, r30
    1e30:	27 d0       	rcall	.+78     	; 0x1e80 <__divsf3_pse+0x8e>
    1e32:	66 0f       	add	r22, r22
    1e34:	77 1f       	adc	r23, r23
    1e36:	88 1f       	adc	r24, r24
    1e38:	bb 1f       	adc	r27, r27
    1e3a:	26 17       	cp	r18, r22
    1e3c:	37 07       	cpc	r19, r23
    1e3e:	48 07       	cpc	r20, r24
    1e40:	ab 07       	cpc	r26, r27
    1e42:	b0 e8       	ldi	r27, 0x80	; 128
    1e44:	09 f0       	breq	.+2      	; 0x1e48 <__divsf3_pse+0x56>
    1e46:	bb 0b       	sbc	r27, r27
    1e48:	80 2d       	mov	r24, r0
    1e4a:	bf 01       	movw	r22, r30
    1e4c:	ff 27       	eor	r31, r31
    1e4e:	93 58       	subi	r25, 0x83	; 131
    1e50:	5f 4f       	sbci	r21, 0xFF	; 255
    1e52:	2a f0       	brmi	.+10     	; 0x1e5e <__divsf3_pse+0x6c>
    1e54:	9e 3f       	cpi	r25, 0xFE	; 254
    1e56:	51 05       	cpc	r21, r1
    1e58:	68 f0       	brcs	.+26     	; 0x1e74 <__divsf3_pse+0x82>
    1e5a:	b1 c0       	rjmp	.+354    	; 0x1fbe <__fp_inf>
    1e5c:	fb c0       	rjmp	.+502    	; 0x2054 <__fp_szero>
    1e5e:	5f 3f       	cpi	r21, 0xFF	; 255
    1e60:	ec f3       	brlt	.-6      	; 0x1e5c <__divsf3_pse+0x6a>
    1e62:	98 3e       	cpi	r25, 0xE8	; 232
    1e64:	dc f3       	brlt	.-10     	; 0x1e5c <__divsf3_pse+0x6a>
    1e66:	86 95       	lsr	r24
    1e68:	77 95       	ror	r23
    1e6a:	67 95       	ror	r22
    1e6c:	b7 95       	ror	r27
    1e6e:	f7 95       	ror	r31
    1e70:	9f 5f       	subi	r25, 0xFF	; 255
    1e72:	c9 f7       	brne	.-14     	; 0x1e66 <__divsf3_pse+0x74>
    1e74:	88 0f       	add	r24, r24
    1e76:	91 1d       	adc	r25, r1
    1e78:	96 95       	lsr	r25
    1e7a:	87 95       	ror	r24
    1e7c:	97 f9       	bld	r25, 7
    1e7e:	08 95       	ret
    1e80:	e1 e0       	ldi	r30, 0x01	; 1
    1e82:	66 0f       	add	r22, r22
    1e84:	77 1f       	adc	r23, r23
    1e86:	88 1f       	adc	r24, r24
    1e88:	bb 1f       	adc	r27, r27
    1e8a:	62 17       	cp	r22, r18
    1e8c:	73 07       	cpc	r23, r19
    1e8e:	84 07       	cpc	r24, r20
    1e90:	ba 07       	cpc	r27, r26
    1e92:	20 f0       	brcs	.+8      	; 0x1e9c <__divsf3_pse+0xaa>
    1e94:	62 1b       	sub	r22, r18
    1e96:	73 0b       	sbc	r23, r19
    1e98:	84 0b       	sbc	r24, r20
    1e9a:	ba 0b       	sbc	r27, r26
    1e9c:	ee 1f       	adc	r30, r30
    1e9e:	88 f7       	brcc	.-30     	; 0x1e82 <__divsf3_pse+0x90>
    1ea0:	e0 95       	com	r30
    1ea2:	08 95       	ret

00001ea4 <__fixunssfsi>:
    1ea4:	bc d0       	rcall	.+376    	; 0x201e <__fp_splitA>
    1ea6:	88 f0       	brcs	.+34     	; 0x1eca <__fixunssfsi+0x26>
    1ea8:	9f 57       	subi	r25, 0x7F	; 127
    1eaa:	90 f0       	brcs	.+36     	; 0x1ed0 <__fixunssfsi+0x2c>
    1eac:	b9 2f       	mov	r27, r25
    1eae:	99 27       	eor	r25, r25
    1eb0:	b7 51       	subi	r27, 0x17	; 23
    1eb2:	a0 f0       	brcs	.+40     	; 0x1edc <__fixunssfsi+0x38>
    1eb4:	d1 f0       	breq	.+52     	; 0x1eea <__fixunssfsi+0x46>
    1eb6:	66 0f       	add	r22, r22
    1eb8:	77 1f       	adc	r23, r23
    1eba:	88 1f       	adc	r24, r24
    1ebc:	99 1f       	adc	r25, r25
    1ebe:	1a f0       	brmi	.+6      	; 0x1ec6 <__fixunssfsi+0x22>
    1ec0:	ba 95       	dec	r27
    1ec2:	c9 f7       	brne	.-14     	; 0x1eb6 <__fixunssfsi+0x12>
    1ec4:	12 c0       	rjmp	.+36     	; 0x1eea <__fixunssfsi+0x46>
    1ec6:	b1 30       	cpi	r27, 0x01	; 1
    1ec8:	81 f0       	breq	.+32     	; 0x1eea <__fixunssfsi+0x46>
    1eca:	c3 d0       	rcall	.+390    	; 0x2052 <__fp_zero>
    1ecc:	b1 e0       	ldi	r27, 0x01	; 1
    1ece:	08 95       	ret
    1ed0:	c0 c0       	rjmp	.+384    	; 0x2052 <__fp_zero>
    1ed2:	67 2f       	mov	r22, r23
    1ed4:	78 2f       	mov	r23, r24
    1ed6:	88 27       	eor	r24, r24
    1ed8:	b8 5f       	subi	r27, 0xF8	; 248
    1eda:	39 f0       	breq	.+14     	; 0x1eea <__fixunssfsi+0x46>
    1edc:	b9 3f       	cpi	r27, 0xF9	; 249
    1ede:	cc f3       	brlt	.-14     	; 0x1ed2 <__fixunssfsi+0x2e>
    1ee0:	86 95       	lsr	r24
    1ee2:	77 95       	ror	r23
    1ee4:	67 95       	ror	r22
    1ee6:	b3 95       	inc	r27
    1ee8:	d9 f7       	brne	.-10     	; 0x1ee0 <__fixunssfsi+0x3c>
    1eea:	3e f4       	brtc	.+14     	; 0x1efa <__fixunssfsi+0x56>
    1eec:	90 95       	com	r25
    1eee:	80 95       	com	r24
    1ef0:	70 95       	com	r23
    1ef2:	61 95       	neg	r22
    1ef4:	7f 4f       	sbci	r23, 0xFF	; 255
    1ef6:	8f 4f       	sbci	r24, 0xFF	; 255
    1ef8:	9f 4f       	sbci	r25, 0xFF	; 255
    1efa:	08 95       	ret

00001efc <__floatunsisf>:
    1efc:	e8 94       	clt
    1efe:	09 c0       	rjmp	.+18     	; 0x1f12 <__floatsisf+0x12>

00001f00 <__floatsisf>:
    1f00:	97 fb       	bst	r25, 7
    1f02:	3e f4       	brtc	.+14     	; 0x1f12 <__floatsisf+0x12>
    1f04:	90 95       	com	r25
    1f06:	80 95       	com	r24
    1f08:	70 95       	com	r23
    1f0a:	61 95       	neg	r22
    1f0c:	7f 4f       	sbci	r23, 0xFF	; 255
    1f0e:	8f 4f       	sbci	r24, 0xFF	; 255
    1f10:	9f 4f       	sbci	r25, 0xFF	; 255
    1f12:	99 23       	and	r25, r25
    1f14:	a9 f0       	breq	.+42     	; 0x1f40 <__floatsisf+0x40>
    1f16:	f9 2f       	mov	r31, r25
    1f18:	96 e9       	ldi	r25, 0x96	; 150
    1f1a:	bb 27       	eor	r27, r27
    1f1c:	93 95       	inc	r25
    1f1e:	f6 95       	lsr	r31
    1f20:	87 95       	ror	r24
    1f22:	77 95       	ror	r23
    1f24:	67 95       	ror	r22
    1f26:	b7 95       	ror	r27
    1f28:	f1 11       	cpse	r31, r1
    1f2a:	f8 cf       	rjmp	.-16     	; 0x1f1c <__floatsisf+0x1c>
    1f2c:	fa f4       	brpl	.+62     	; 0x1f6c <__floatsisf+0x6c>
    1f2e:	bb 0f       	add	r27, r27
    1f30:	11 f4       	brne	.+4      	; 0x1f36 <__floatsisf+0x36>
    1f32:	60 ff       	sbrs	r22, 0
    1f34:	1b c0       	rjmp	.+54     	; 0x1f6c <__floatsisf+0x6c>
    1f36:	6f 5f       	subi	r22, 0xFF	; 255
    1f38:	7f 4f       	sbci	r23, 0xFF	; 255
    1f3a:	8f 4f       	sbci	r24, 0xFF	; 255
    1f3c:	9f 4f       	sbci	r25, 0xFF	; 255
    1f3e:	16 c0       	rjmp	.+44     	; 0x1f6c <__floatsisf+0x6c>
    1f40:	88 23       	and	r24, r24
    1f42:	11 f0       	breq	.+4      	; 0x1f48 <__floatsisf+0x48>
    1f44:	96 e9       	ldi	r25, 0x96	; 150
    1f46:	11 c0       	rjmp	.+34     	; 0x1f6a <__floatsisf+0x6a>
    1f48:	77 23       	and	r23, r23
    1f4a:	21 f0       	breq	.+8      	; 0x1f54 <__floatsisf+0x54>
    1f4c:	9e e8       	ldi	r25, 0x8E	; 142
    1f4e:	87 2f       	mov	r24, r23
    1f50:	76 2f       	mov	r23, r22
    1f52:	05 c0       	rjmp	.+10     	; 0x1f5e <__floatsisf+0x5e>
    1f54:	66 23       	and	r22, r22
    1f56:	71 f0       	breq	.+28     	; 0x1f74 <__floatsisf+0x74>
    1f58:	96 e8       	ldi	r25, 0x86	; 134
    1f5a:	86 2f       	mov	r24, r22
    1f5c:	70 e0       	ldi	r23, 0x00	; 0
    1f5e:	60 e0       	ldi	r22, 0x00	; 0
    1f60:	2a f0       	brmi	.+10     	; 0x1f6c <__floatsisf+0x6c>
    1f62:	9a 95       	dec	r25
    1f64:	66 0f       	add	r22, r22
    1f66:	77 1f       	adc	r23, r23
    1f68:	88 1f       	adc	r24, r24
    1f6a:	da f7       	brpl	.-10     	; 0x1f62 <__floatsisf+0x62>
    1f6c:	88 0f       	add	r24, r24
    1f6e:	96 95       	lsr	r25
    1f70:	87 95       	ror	r24
    1f72:	97 f9       	bld	r25, 7
    1f74:	08 95       	ret

00001f76 <__fp_cmp>:
    1f76:	99 0f       	add	r25, r25
    1f78:	00 08       	sbc	r0, r0
    1f7a:	55 0f       	add	r21, r21
    1f7c:	aa 0b       	sbc	r26, r26
    1f7e:	e0 e8       	ldi	r30, 0x80	; 128
    1f80:	fe ef       	ldi	r31, 0xFE	; 254
    1f82:	16 16       	cp	r1, r22
    1f84:	17 06       	cpc	r1, r23
    1f86:	e8 07       	cpc	r30, r24
    1f88:	f9 07       	cpc	r31, r25
    1f8a:	c0 f0       	brcs	.+48     	; 0x1fbc <__fp_cmp+0x46>
    1f8c:	12 16       	cp	r1, r18
    1f8e:	13 06       	cpc	r1, r19
    1f90:	e4 07       	cpc	r30, r20
    1f92:	f5 07       	cpc	r31, r21
    1f94:	98 f0       	brcs	.+38     	; 0x1fbc <__fp_cmp+0x46>
    1f96:	62 1b       	sub	r22, r18
    1f98:	73 0b       	sbc	r23, r19
    1f9a:	84 0b       	sbc	r24, r20
    1f9c:	95 0b       	sbc	r25, r21
    1f9e:	39 f4       	brne	.+14     	; 0x1fae <__fp_cmp+0x38>
    1fa0:	0a 26       	eor	r0, r26
    1fa2:	61 f0       	breq	.+24     	; 0x1fbc <__fp_cmp+0x46>
    1fa4:	23 2b       	or	r18, r19
    1fa6:	24 2b       	or	r18, r20
    1fa8:	25 2b       	or	r18, r21
    1faa:	21 f4       	brne	.+8      	; 0x1fb4 <__fp_cmp+0x3e>
    1fac:	08 95       	ret
    1fae:	0a 26       	eor	r0, r26
    1fb0:	09 f4       	brne	.+2      	; 0x1fb4 <__fp_cmp+0x3e>
    1fb2:	a1 40       	sbci	r26, 0x01	; 1
    1fb4:	a6 95       	lsr	r26
    1fb6:	8f ef       	ldi	r24, 0xFF	; 255
    1fb8:	81 1d       	adc	r24, r1
    1fba:	81 1d       	adc	r24, r1
    1fbc:	08 95       	ret

00001fbe <__fp_inf>:
    1fbe:	97 f9       	bld	r25, 7
    1fc0:	9f 67       	ori	r25, 0x7F	; 127
    1fc2:	80 e8       	ldi	r24, 0x80	; 128
    1fc4:	70 e0       	ldi	r23, 0x00	; 0
    1fc6:	60 e0       	ldi	r22, 0x00	; 0
    1fc8:	08 95       	ret

00001fca <__fp_nan>:
    1fca:	9f ef       	ldi	r25, 0xFF	; 255
    1fcc:	80 ec       	ldi	r24, 0xC0	; 192
    1fce:	08 95       	ret

00001fd0 <__fp_pscA>:
    1fd0:	00 24       	eor	r0, r0
    1fd2:	0a 94       	dec	r0
    1fd4:	16 16       	cp	r1, r22
    1fd6:	17 06       	cpc	r1, r23
    1fd8:	18 06       	cpc	r1, r24
    1fda:	09 06       	cpc	r0, r25
    1fdc:	08 95       	ret

00001fde <__fp_pscB>:
    1fde:	00 24       	eor	r0, r0
    1fe0:	0a 94       	dec	r0
    1fe2:	12 16       	cp	r1, r18
    1fe4:	13 06       	cpc	r1, r19
    1fe6:	14 06       	cpc	r1, r20
    1fe8:	05 06       	cpc	r0, r21
    1fea:	08 95       	ret

00001fec <__fp_round>:
    1fec:	09 2e       	mov	r0, r25
    1fee:	03 94       	inc	r0
    1ff0:	00 0c       	add	r0, r0
    1ff2:	11 f4       	brne	.+4      	; 0x1ff8 <__fp_round+0xc>
    1ff4:	88 23       	and	r24, r24
    1ff6:	52 f0       	brmi	.+20     	; 0x200c <__fp_round+0x20>
    1ff8:	bb 0f       	add	r27, r27
    1ffa:	40 f4       	brcc	.+16     	; 0x200c <__fp_round+0x20>
    1ffc:	bf 2b       	or	r27, r31
    1ffe:	11 f4       	brne	.+4      	; 0x2004 <__fp_round+0x18>
    2000:	60 ff       	sbrs	r22, 0
    2002:	04 c0       	rjmp	.+8      	; 0x200c <__fp_round+0x20>
    2004:	6f 5f       	subi	r22, 0xFF	; 255
    2006:	7f 4f       	sbci	r23, 0xFF	; 255
    2008:	8f 4f       	sbci	r24, 0xFF	; 255
    200a:	9f 4f       	sbci	r25, 0xFF	; 255
    200c:	08 95       	ret

0000200e <__fp_split3>:
    200e:	57 fd       	sbrc	r21, 7
    2010:	90 58       	subi	r25, 0x80	; 128
    2012:	44 0f       	add	r20, r20
    2014:	55 1f       	adc	r21, r21
    2016:	59 f0       	breq	.+22     	; 0x202e <__fp_splitA+0x10>
    2018:	5f 3f       	cpi	r21, 0xFF	; 255
    201a:	71 f0       	breq	.+28     	; 0x2038 <__fp_splitA+0x1a>
    201c:	47 95       	ror	r20

0000201e <__fp_splitA>:
    201e:	88 0f       	add	r24, r24
    2020:	97 fb       	bst	r25, 7
    2022:	99 1f       	adc	r25, r25
    2024:	61 f0       	breq	.+24     	; 0x203e <__fp_splitA+0x20>
    2026:	9f 3f       	cpi	r25, 0xFF	; 255
    2028:	79 f0       	breq	.+30     	; 0x2048 <__fp_splitA+0x2a>
    202a:	87 95       	ror	r24
    202c:	08 95       	ret
    202e:	12 16       	cp	r1, r18
    2030:	13 06       	cpc	r1, r19
    2032:	14 06       	cpc	r1, r20
    2034:	55 1f       	adc	r21, r21
    2036:	f2 cf       	rjmp	.-28     	; 0x201c <__fp_split3+0xe>
    2038:	46 95       	lsr	r20
    203a:	f1 df       	rcall	.-30     	; 0x201e <__fp_splitA>
    203c:	08 c0       	rjmp	.+16     	; 0x204e <__fp_splitA+0x30>
    203e:	16 16       	cp	r1, r22
    2040:	17 06       	cpc	r1, r23
    2042:	18 06       	cpc	r1, r24
    2044:	99 1f       	adc	r25, r25
    2046:	f1 cf       	rjmp	.-30     	; 0x202a <__fp_splitA+0xc>
    2048:	86 95       	lsr	r24
    204a:	71 05       	cpc	r23, r1
    204c:	61 05       	cpc	r22, r1
    204e:	08 94       	sec
    2050:	08 95       	ret

00002052 <__fp_zero>:
    2052:	e8 94       	clt

00002054 <__fp_szero>:
    2054:	bb 27       	eor	r27, r27
    2056:	66 27       	eor	r22, r22
    2058:	77 27       	eor	r23, r23
    205a:	cb 01       	movw	r24, r22
    205c:	97 f9       	bld	r25, 7
    205e:	08 95       	ret

00002060 <__gesf2>:
    2060:	8a df       	rcall	.-236    	; 0x1f76 <__fp_cmp>
    2062:	08 f4       	brcc	.+2      	; 0x2066 <__gesf2+0x6>
    2064:	8f ef       	ldi	r24, 0xFF	; 255
    2066:	08 95       	ret

00002068 <__mulsf3>:
    2068:	0b d0       	rcall	.+22     	; 0x2080 <__mulsf3x>
    206a:	c0 cf       	rjmp	.-128    	; 0x1fec <__fp_round>
    206c:	b1 df       	rcall	.-158    	; 0x1fd0 <__fp_pscA>
    206e:	28 f0       	brcs	.+10     	; 0x207a <__mulsf3+0x12>
    2070:	b6 df       	rcall	.-148    	; 0x1fde <__fp_pscB>
    2072:	18 f0       	brcs	.+6      	; 0x207a <__mulsf3+0x12>
    2074:	95 23       	and	r25, r21
    2076:	09 f0       	breq	.+2      	; 0x207a <__mulsf3+0x12>
    2078:	a2 cf       	rjmp	.-188    	; 0x1fbe <__fp_inf>
    207a:	a7 cf       	rjmp	.-178    	; 0x1fca <__fp_nan>
    207c:	11 24       	eor	r1, r1
    207e:	ea cf       	rjmp	.-44     	; 0x2054 <__fp_szero>

00002080 <__mulsf3x>:
    2080:	c6 df       	rcall	.-116    	; 0x200e <__fp_split3>
    2082:	a0 f3       	brcs	.-24     	; 0x206c <__mulsf3+0x4>

00002084 <__mulsf3_pse>:
    2084:	95 9f       	mul	r25, r21
    2086:	d1 f3       	breq	.-12     	; 0x207c <__mulsf3+0x14>
    2088:	95 0f       	add	r25, r21
    208a:	50 e0       	ldi	r21, 0x00	; 0
    208c:	55 1f       	adc	r21, r21
    208e:	62 9f       	mul	r22, r18
    2090:	f0 01       	movw	r30, r0
    2092:	72 9f       	mul	r23, r18
    2094:	bb 27       	eor	r27, r27
    2096:	f0 0d       	add	r31, r0
    2098:	b1 1d       	adc	r27, r1
    209a:	63 9f       	mul	r22, r19
    209c:	aa 27       	eor	r26, r26
    209e:	f0 0d       	add	r31, r0
    20a0:	b1 1d       	adc	r27, r1
    20a2:	aa 1f       	adc	r26, r26
    20a4:	64 9f       	mul	r22, r20
    20a6:	66 27       	eor	r22, r22
    20a8:	b0 0d       	add	r27, r0
    20aa:	a1 1d       	adc	r26, r1
    20ac:	66 1f       	adc	r22, r22
    20ae:	82 9f       	mul	r24, r18
    20b0:	22 27       	eor	r18, r18
    20b2:	b0 0d       	add	r27, r0
    20b4:	a1 1d       	adc	r26, r1
    20b6:	62 1f       	adc	r22, r18
    20b8:	73 9f       	mul	r23, r19
    20ba:	b0 0d       	add	r27, r0
    20bc:	a1 1d       	adc	r26, r1
    20be:	62 1f       	adc	r22, r18
    20c0:	83 9f       	mul	r24, r19
    20c2:	a0 0d       	add	r26, r0
    20c4:	61 1d       	adc	r22, r1
    20c6:	22 1f       	adc	r18, r18
    20c8:	74 9f       	mul	r23, r20
    20ca:	33 27       	eor	r19, r19
    20cc:	a0 0d       	add	r26, r0
    20ce:	61 1d       	adc	r22, r1
    20d0:	23 1f       	adc	r18, r19
    20d2:	84 9f       	mul	r24, r20
    20d4:	60 0d       	add	r22, r0
    20d6:	21 1d       	adc	r18, r1
    20d8:	82 2f       	mov	r24, r18
    20da:	76 2f       	mov	r23, r22
    20dc:	6a 2f       	mov	r22, r26
    20de:	11 24       	eor	r1, r1
    20e0:	9f 57       	subi	r25, 0x7F	; 127
    20e2:	50 40       	sbci	r21, 0x00	; 0
    20e4:	8a f0       	brmi	.+34     	; 0x2108 <__mulsf3_pse+0x84>
    20e6:	e1 f0       	breq	.+56     	; 0x2120 <__mulsf3_pse+0x9c>
    20e8:	88 23       	and	r24, r24
    20ea:	4a f0       	brmi	.+18     	; 0x20fe <__mulsf3_pse+0x7a>
    20ec:	ee 0f       	add	r30, r30
    20ee:	ff 1f       	adc	r31, r31
    20f0:	bb 1f       	adc	r27, r27
    20f2:	66 1f       	adc	r22, r22
    20f4:	77 1f       	adc	r23, r23
    20f6:	88 1f       	adc	r24, r24
    20f8:	91 50       	subi	r25, 0x01	; 1
    20fa:	50 40       	sbci	r21, 0x00	; 0
    20fc:	a9 f7       	brne	.-22     	; 0x20e8 <__mulsf3_pse+0x64>
    20fe:	9e 3f       	cpi	r25, 0xFE	; 254
    2100:	51 05       	cpc	r21, r1
    2102:	70 f0       	brcs	.+28     	; 0x2120 <__mulsf3_pse+0x9c>
    2104:	5c cf       	rjmp	.-328    	; 0x1fbe <__fp_inf>
    2106:	a6 cf       	rjmp	.-180    	; 0x2054 <__fp_szero>
    2108:	5f 3f       	cpi	r21, 0xFF	; 255
    210a:	ec f3       	brlt	.-6      	; 0x2106 <__mulsf3_pse+0x82>
    210c:	98 3e       	cpi	r25, 0xE8	; 232
    210e:	dc f3       	brlt	.-10     	; 0x2106 <__mulsf3_pse+0x82>
    2110:	86 95       	lsr	r24
    2112:	77 95       	ror	r23
    2114:	67 95       	ror	r22
    2116:	b7 95       	ror	r27
    2118:	f7 95       	ror	r31
    211a:	e7 95       	ror	r30
    211c:	9f 5f       	subi	r25, 0xFF	; 255
    211e:	c1 f7       	brne	.-16     	; 0x2110 <__mulsf3_pse+0x8c>
    2120:	fe 2b       	or	r31, r30
    2122:	88 0f       	add	r24, r24
    2124:	91 1d       	adc	r25, r1
    2126:	96 95       	lsr	r25
    2128:	87 95       	ror	r24
    212a:	97 f9       	bld	r25, 7
    212c:	08 95       	ret

0000212e <pow>:
    212e:	fa 01       	movw	r30, r20
    2130:	ee 0f       	add	r30, r30
    2132:	ff 1f       	adc	r31, r31
    2134:	30 96       	adiw	r30, 0x00	; 0
    2136:	21 05       	cpc	r18, r1
    2138:	31 05       	cpc	r19, r1
    213a:	99 f1       	breq	.+102    	; 0x21a2 <pow+0x74>
    213c:	61 15       	cp	r22, r1
    213e:	71 05       	cpc	r23, r1
    2140:	61 f4       	brne	.+24     	; 0x215a <pow+0x2c>
    2142:	80 38       	cpi	r24, 0x80	; 128
    2144:	bf e3       	ldi	r27, 0x3F	; 63
    2146:	9b 07       	cpc	r25, r27
    2148:	49 f1       	breq	.+82     	; 0x219c <pow+0x6e>
    214a:	68 94       	set
    214c:	90 38       	cpi	r25, 0x80	; 128
    214e:	81 05       	cpc	r24, r1
    2150:	61 f0       	breq	.+24     	; 0x216a <pow+0x3c>
    2152:	80 38       	cpi	r24, 0x80	; 128
    2154:	bf ef       	ldi	r27, 0xFF	; 255
    2156:	9b 07       	cpc	r25, r27
    2158:	41 f0       	breq	.+16     	; 0x216a <pow+0x3c>
    215a:	99 23       	and	r25, r25
    215c:	42 f5       	brpl	.+80     	; 0x21ae <pow+0x80>
    215e:	ff 3f       	cpi	r31, 0xFF	; 255
    2160:	e1 05       	cpc	r30, r1
    2162:	31 05       	cpc	r19, r1
    2164:	21 05       	cpc	r18, r1
    2166:	11 f1       	breq	.+68     	; 0x21ac <pow+0x7e>
    2168:	e8 94       	clt
    216a:	08 94       	sec
    216c:	e7 95       	ror	r30
    216e:	d9 01       	movw	r26, r18
    2170:	aa 23       	and	r26, r26
    2172:	29 f4       	brne	.+10     	; 0x217e <pow+0x50>
    2174:	ab 2f       	mov	r26, r27
    2176:	be 2f       	mov	r27, r30
    2178:	f8 5f       	subi	r31, 0xF8	; 248
    217a:	d0 f3       	brcs	.-12     	; 0x2170 <pow+0x42>
    217c:	10 c0       	rjmp	.+32     	; 0x219e <pow+0x70>
    217e:	ff 5f       	subi	r31, 0xFF	; 255
    2180:	70 f4       	brcc	.+28     	; 0x219e <pow+0x70>
    2182:	a6 95       	lsr	r26
    2184:	e0 f7       	brcc	.-8      	; 0x217e <pow+0x50>
    2186:	f7 39       	cpi	r31, 0x97	; 151
    2188:	50 f0       	brcs	.+20     	; 0x219e <pow+0x70>
    218a:	19 f0       	breq	.+6      	; 0x2192 <pow+0x64>
    218c:	ff 3a       	cpi	r31, 0xAF	; 175
    218e:	38 f4       	brcc	.+14     	; 0x219e <pow+0x70>
    2190:	9f 77       	andi	r25, 0x7F	; 127
    2192:	9f 93       	push	r25
    2194:	0c d0       	rcall	.+24     	; 0x21ae <pow+0x80>
    2196:	0f 90       	pop	r0
    2198:	07 fc       	sbrc	r0, 7
    219a:	90 58       	subi	r25, 0x80	; 128
    219c:	08 95       	ret
    219e:	3e f0       	brts	.+14     	; 0x21ae <pow+0x80>
    21a0:	14 cf       	rjmp	.-472    	; 0x1fca <__fp_nan>
    21a2:	60 e0       	ldi	r22, 0x00	; 0
    21a4:	70 e0       	ldi	r23, 0x00	; 0
    21a6:	80 e8       	ldi	r24, 0x80	; 128
    21a8:	9f e3       	ldi	r25, 0x3F	; 63
    21aa:	08 95       	ret
    21ac:	4f e7       	ldi	r20, 0x7F	; 127
    21ae:	9f 77       	andi	r25, 0x7F	; 127
    21b0:	5f 93       	push	r21
    21b2:	4f 93       	push	r20
    21b4:	3f 93       	push	r19
    21b6:	2f 93       	push	r18
    21b8:	9e d0       	rcall	.+316    	; 0x22f6 <log>
    21ba:	2f 91       	pop	r18
    21bc:	3f 91       	pop	r19
    21be:	4f 91       	pop	r20
    21c0:	5f 91       	pop	r21
    21c2:	52 df       	rcall	.-348    	; 0x2068 <__mulsf3>
    21c4:	05 c0       	rjmp	.+10     	; 0x21d0 <exp>
    21c6:	19 f4       	brne	.+6      	; 0x21ce <pow+0xa0>
    21c8:	0e f0       	brts	.+2      	; 0x21cc <pow+0x9e>
    21ca:	f9 ce       	rjmp	.-526    	; 0x1fbe <__fp_inf>
    21cc:	42 cf       	rjmp	.-380    	; 0x2052 <__fp_zero>
    21ce:	fd ce       	rjmp	.-518    	; 0x1fca <__fp_nan>

000021d0 <exp>:
    21d0:	26 df       	rcall	.-436    	; 0x201e <__fp_splitA>
    21d2:	c8 f3       	brcs	.-14     	; 0x21c6 <pow+0x98>
    21d4:	96 38       	cpi	r25, 0x86	; 134
    21d6:	c0 f7       	brcc	.-16     	; 0x21c8 <pow+0x9a>
    21d8:	07 f8       	bld	r0, 7
    21da:	0f 92       	push	r0
    21dc:	e8 94       	clt
    21de:	2b e3       	ldi	r18, 0x3B	; 59
    21e0:	3a ea       	ldi	r19, 0xAA	; 170
    21e2:	48 eb       	ldi	r20, 0xB8	; 184
    21e4:	5f e7       	ldi	r21, 0x7F	; 127
    21e6:	4e df       	rcall	.-356    	; 0x2084 <__mulsf3_pse>
    21e8:	0f 92       	push	r0
    21ea:	0f 92       	push	r0
    21ec:	0f 92       	push	r0
    21ee:	4d b7       	in	r20, 0x3d	; 61
    21f0:	5e b7       	in	r21, 0x3e	; 62
    21f2:	0f 92       	push	r0
    21f4:	c0 d0       	rcall	.+384    	; 0x2376 <modf>
    21f6:	ec e8       	ldi	r30, 0x8C	; 140
    21f8:	f0 e0       	ldi	r31, 0x00	; 0
    21fa:	16 d0       	rcall	.+44     	; 0x2228 <__fp_powser>
    21fc:	4f 91       	pop	r20
    21fe:	5f 91       	pop	r21
    2200:	ef 91       	pop	r30
    2202:	ff 91       	pop	r31
    2204:	e5 95       	asr	r30
    2206:	ee 1f       	adc	r30, r30
    2208:	ff 1f       	adc	r31, r31
    220a:	49 f0       	breq	.+18     	; 0x221e <exp+0x4e>
    220c:	fe 57       	subi	r31, 0x7E	; 126
    220e:	e0 68       	ori	r30, 0x80	; 128
    2210:	44 27       	eor	r20, r20
    2212:	ee 0f       	add	r30, r30
    2214:	44 1f       	adc	r20, r20
    2216:	fa 95       	dec	r31
    2218:	e1 f7       	brne	.-8      	; 0x2212 <exp+0x42>
    221a:	41 95       	neg	r20
    221c:	55 0b       	sbc	r21, r21
    221e:	32 d0       	rcall	.+100    	; 0x2284 <ldexp>
    2220:	0f 90       	pop	r0
    2222:	07 fe       	sbrs	r0, 7
    2224:	26 c0       	rjmp	.+76     	; 0x2272 <inverse>
    2226:	08 95       	ret

00002228 <__fp_powser>:
    2228:	df 93       	push	r29
    222a:	cf 93       	push	r28
    222c:	1f 93       	push	r17
    222e:	0f 93       	push	r16
    2230:	ff 92       	push	r15
    2232:	ef 92       	push	r14
    2234:	df 92       	push	r13
    2236:	7b 01       	movw	r14, r22
    2238:	8c 01       	movw	r16, r24
    223a:	68 94       	set
    223c:	05 c0       	rjmp	.+10     	; 0x2248 <__fp_powser+0x20>
    223e:	da 2e       	mov	r13, r26
    2240:	ef 01       	movw	r28, r30
    2242:	1e df       	rcall	.-452    	; 0x2080 <__mulsf3x>
    2244:	fe 01       	movw	r30, r28
    2246:	e8 94       	clt
    2248:	a5 91       	lpm	r26, Z+
    224a:	25 91       	lpm	r18, Z+
    224c:	35 91       	lpm	r19, Z+
    224e:	45 91       	lpm	r20, Z+
    2250:	55 91       	lpm	r21, Z+
    2252:	ae f3       	brts	.-22     	; 0x223e <__fp_powser+0x16>
    2254:	ef 01       	movw	r28, r30
    2256:	67 dd       	rcall	.-1330   	; 0x1d26 <__addsf3x>
    2258:	fe 01       	movw	r30, r28
    225a:	97 01       	movw	r18, r14
    225c:	a8 01       	movw	r20, r16
    225e:	da 94       	dec	r13
    2260:	79 f7       	brne	.-34     	; 0x2240 <__fp_powser+0x18>
    2262:	df 90       	pop	r13
    2264:	ef 90       	pop	r14
    2266:	ff 90       	pop	r15
    2268:	0f 91       	pop	r16
    226a:	1f 91       	pop	r17
    226c:	cf 91       	pop	r28
    226e:	df 91       	pop	r29
    2270:	08 95       	ret

00002272 <inverse>:
    2272:	9b 01       	movw	r18, r22
    2274:	ac 01       	movw	r20, r24
    2276:	60 e0       	ldi	r22, 0x00	; 0
    2278:	70 e0       	ldi	r23, 0x00	; 0
    227a:	80 e8       	ldi	r24, 0x80	; 128
    227c:	9f e3       	ldi	r25, 0x3F	; 63
    227e:	aa cd       	rjmp	.-1196   	; 0x1dd4 <__divsf3>
    2280:	9e ce       	rjmp	.-708    	; 0x1fbe <__fp_inf>
    2282:	ac c0       	rjmp	.+344    	; 0x23dc <__fp_mpack>

00002284 <ldexp>:
    2284:	cc de       	rcall	.-616    	; 0x201e <__fp_splitA>
    2286:	e8 f3       	brcs	.-6      	; 0x2282 <inverse+0x10>
    2288:	99 23       	and	r25, r25
    228a:	d9 f3       	breq	.-10     	; 0x2282 <inverse+0x10>
    228c:	94 0f       	add	r25, r20
    228e:	51 1d       	adc	r21, r1
    2290:	bb f3       	brvs	.-18     	; 0x2280 <inverse+0xe>
    2292:	91 50       	subi	r25, 0x01	; 1
    2294:	50 40       	sbci	r21, 0x00	; 0
    2296:	94 f0       	brlt	.+36     	; 0x22bc <ldexp+0x38>
    2298:	59 f0       	breq	.+22     	; 0x22b0 <ldexp+0x2c>
    229a:	88 23       	and	r24, r24
    229c:	32 f0       	brmi	.+12     	; 0x22aa <ldexp+0x26>
    229e:	66 0f       	add	r22, r22
    22a0:	77 1f       	adc	r23, r23
    22a2:	88 1f       	adc	r24, r24
    22a4:	91 50       	subi	r25, 0x01	; 1
    22a6:	50 40       	sbci	r21, 0x00	; 0
    22a8:	c1 f7       	brne	.-16     	; 0x229a <ldexp+0x16>
    22aa:	9e 3f       	cpi	r25, 0xFE	; 254
    22ac:	51 05       	cpc	r21, r1
    22ae:	44 f7       	brge	.-48     	; 0x2280 <inverse+0xe>
    22b0:	88 0f       	add	r24, r24
    22b2:	91 1d       	adc	r25, r1
    22b4:	96 95       	lsr	r25
    22b6:	87 95       	ror	r24
    22b8:	97 f9       	bld	r25, 7
    22ba:	08 95       	ret
    22bc:	5f 3f       	cpi	r21, 0xFF	; 255
    22be:	ac f0       	brlt	.+42     	; 0x22ea <ldexp+0x66>
    22c0:	98 3e       	cpi	r25, 0xE8	; 232
    22c2:	9c f0       	brlt	.+38     	; 0x22ea <ldexp+0x66>
    22c4:	bb 27       	eor	r27, r27
    22c6:	86 95       	lsr	r24
    22c8:	77 95       	ror	r23
    22ca:	67 95       	ror	r22
    22cc:	b7 95       	ror	r27
    22ce:	08 f4       	brcc	.+2      	; 0x22d2 <ldexp+0x4e>
    22d0:	b1 60       	ori	r27, 0x01	; 1
    22d2:	93 95       	inc	r25
    22d4:	c1 f7       	brne	.-16     	; 0x22c6 <ldexp+0x42>
    22d6:	bb 0f       	add	r27, r27
    22d8:	58 f7       	brcc	.-42     	; 0x22b0 <ldexp+0x2c>
    22da:	11 f4       	brne	.+4      	; 0x22e0 <ldexp+0x5c>
    22dc:	60 ff       	sbrs	r22, 0
    22de:	e8 cf       	rjmp	.-48     	; 0x22b0 <ldexp+0x2c>
    22e0:	6f 5f       	subi	r22, 0xFF	; 255
    22e2:	7f 4f       	sbci	r23, 0xFF	; 255
    22e4:	8f 4f       	sbci	r24, 0xFF	; 255
    22e6:	9f 4f       	sbci	r25, 0xFF	; 255
    22e8:	e3 cf       	rjmp	.-58     	; 0x22b0 <ldexp+0x2c>
    22ea:	b4 ce       	rjmp	.-664    	; 0x2054 <__fp_szero>
    22ec:	0e f0       	brts	.+2      	; 0x22f0 <ldexp+0x6c>
    22ee:	76 c0       	rjmp	.+236    	; 0x23dc <__fp_mpack>
    22f0:	6c ce       	rjmp	.-808    	; 0x1fca <__fp_nan>
    22f2:	68 94       	set
    22f4:	64 ce       	rjmp	.-824    	; 0x1fbe <__fp_inf>

000022f6 <log>:
    22f6:	93 de       	rcall	.-730    	; 0x201e <__fp_splitA>
    22f8:	c8 f3       	brcs	.-14     	; 0x22ec <ldexp+0x68>
    22fa:	99 23       	and	r25, r25
    22fc:	d1 f3       	breq	.-12     	; 0x22f2 <ldexp+0x6e>
    22fe:	c6 f3       	brts	.-16     	; 0x22f0 <ldexp+0x6c>
    2300:	df 93       	push	r29
    2302:	cf 93       	push	r28
    2304:	1f 93       	push	r17
    2306:	0f 93       	push	r16
    2308:	ff 92       	push	r15
    230a:	c9 2f       	mov	r28, r25
    230c:	dd 27       	eor	r29, r29
    230e:	88 23       	and	r24, r24
    2310:	2a f0       	brmi	.+10     	; 0x231c <log+0x26>
    2312:	21 97       	sbiw	r28, 0x01	; 1
    2314:	66 0f       	add	r22, r22
    2316:	77 1f       	adc	r23, r23
    2318:	88 1f       	adc	r24, r24
    231a:	da f7       	brpl	.-10     	; 0x2312 <log+0x1c>
    231c:	20 e0       	ldi	r18, 0x00	; 0
    231e:	30 e0       	ldi	r19, 0x00	; 0
    2320:	40 e8       	ldi	r20, 0x80	; 128
    2322:	5f eb       	ldi	r21, 0xBF	; 191
    2324:	9f e3       	ldi	r25, 0x3F	; 63
    2326:	88 39       	cpi	r24, 0x98	; 152
    2328:	20 f0       	brcs	.+8      	; 0x2332 <log+0x3c>
    232a:	80 3e       	cpi	r24, 0xE0	; 224
    232c:	30 f0       	brcs	.+12     	; 0x233a <log+0x44>
    232e:	21 96       	adiw	r28, 0x01	; 1
    2330:	8f 77       	andi	r24, 0x7F	; 127
    2332:	e8 dc       	rcall	.-1584   	; 0x1d04 <__addsf3>
    2334:	e4 eb       	ldi	r30, 0xB4	; 180
    2336:	f0 e0       	ldi	r31, 0x00	; 0
    2338:	03 c0       	rjmp	.+6      	; 0x2340 <log+0x4a>
    233a:	e4 dc       	rcall	.-1592   	; 0x1d04 <__addsf3>
    233c:	e1 ee       	ldi	r30, 0xE1	; 225
    233e:	f0 e0       	ldi	r31, 0x00	; 0
    2340:	73 df       	rcall	.-282    	; 0x2228 <__fp_powser>
    2342:	8b 01       	movw	r16, r22
    2344:	be 01       	movw	r22, r28
    2346:	ec 01       	movw	r28, r24
    2348:	fb 2e       	mov	r15, r27
    234a:	6f 57       	subi	r22, 0x7F	; 127
    234c:	71 09       	sbc	r23, r1
    234e:	75 95       	asr	r23
    2350:	77 1f       	adc	r23, r23
    2352:	88 0b       	sbc	r24, r24
    2354:	99 0b       	sbc	r25, r25
    2356:	d4 dd       	rcall	.-1112   	; 0x1f00 <__floatsisf>
    2358:	28 e1       	ldi	r18, 0x18	; 24
    235a:	32 e7       	ldi	r19, 0x72	; 114
    235c:	41 e3       	ldi	r20, 0x31	; 49
    235e:	5f e3       	ldi	r21, 0x3F	; 63
    2360:	8f de       	rcall	.-738    	; 0x2080 <__mulsf3x>
    2362:	af 2d       	mov	r26, r15
    2364:	98 01       	movw	r18, r16
    2366:	ae 01       	movw	r20, r28
    2368:	ff 90       	pop	r15
    236a:	0f 91       	pop	r16
    236c:	1f 91       	pop	r17
    236e:	cf 91       	pop	r28
    2370:	df 91       	pop	r29
    2372:	d9 dc       	rcall	.-1614   	; 0x1d26 <__addsf3x>
    2374:	3b ce       	rjmp	.-906    	; 0x1fec <__fp_round>

00002376 <modf>:
    2376:	fa 01       	movw	r30, r20
    2378:	dc 01       	movw	r26, r24
    237a:	aa 0f       	add	r26, r26
    237c:	bb 1f       	adc	r27, r27
    237e:	9b 01       	movw	r18, r22
    2380:	ac 01       	movw	r20, r24
    2382:	bf 57       	subi	r27, 0x7F	; 127
    2384:	28 f4       	brcc	.+10     	; 0x2390 <modf+0x1a>
    2386:	22 27       	eor	r18, r18
    2388:	33 27       	eor	r19, r19
    238a:	44 27       	eor	r20, r20
    238c:	50 78       	andi	r21, 0x80	; 128
    238e:	1f c0       	rjmp	.+62     	; 0x23ce <modf+0x58>
    2390:	b7 51       	subi	r27, 0x17	; 23
    2392:	88 f4       	brcc	.+34     	; 0x23b6 <modf+0x40>
    2394:	ab 2f       	mov	r26, r27
    2396:	00 24       	eor	r0, r0
    2398:	46 95       	lsr	r20
    239a:	37 95       	ror	r19
    239c:	27 95       	ror	r18
    239e:	01 1c       	adc	r0, r1
    23a0:	a3 95       	inc	r26
    23a2:	d2 f3       	brmi	.-12     	; 0x2398 <modf+0x22>
    23a4:	00 20       	and	r0, r0
    23a6:	69 f0       	breq	.+26     	; 0x23c2 <modf+0x4c>
    23a8:	22 0f       	add	r18, r18
    23aa:	33 1f       	adc	r19, r19
    23ac:	44 1f       	adc	r20, r20
    23ae:	b3 95       	inc	r27
    23b0:	da f3       	brmi	.-10     	; 0x23a8 <modf+0x32>
    23b2:	0d d0       	rcall	.+26     	; 0x23ce <modf+0x58>
    23b4:	a6 cc       	rjmp	.-1716   	; 0x1d02 <__subsf3>
    23b6:	61 30       	cpi	r22, 0x01	; 1
    23b8:	71 05       	cpc	r23, r1
    23ba:	a0 e8       	ldi	r26, 0x80	; 128
    23bc:	8a 07       	cpc	r24, r26
    23be:	b9 46       	sbci	r27, 0x69	; 105
    23c0:	30 f4       	brcc	.+12     	; 0x23ce <modf+0x58>
    23c2:	9b 01       	movw	r18, r22
    23c4:	ac 01       	movw	r20, r24
    23c6:	66 27       	eor	r22, r22
    23c8:	77 27       	eor	r23, r23
    23ca:	88 27       	eor	r24, r24
    23cc:	90 78       	andi	r25, 0x80	; 128
    23ce:	30 96       	adiw	r30, 0x00	; 0
    23d0:	21 f0       	breq	.+8      	; 0x23da <modf+0x64>
    23d2:	20 83       	st	Z, r18
    23d4:	31 83       	std	Z+1, r19	; 0x01
    23d6:	42 83       	std	Z+2, r20	; 0x02
    23d8:	53 83       	std	Z+3, r21	; 0x03
    23da:	08 95       	ret

000023dc <__fp_mpack>:
    23dc:	9f 3f       	cpi	r25, 0xFF	; 255
    23de:	31 f0       	breq	.+12     	; 0x23ec <__fp_mpack_finite+0xc>

000023e0 <__fp_mpack_finite>:
    23e0:	91 50       	subi	r25, 0x01	; 1
    23e2:	20 f4       	brcc	.+8      	; 0x23ec <__fp_mpack_finite+0xc>
    23e4:	87 95       	ror	r24
    23e6:	77 95       	ror	r23
    23e8:	67 95       	ror	r22
    23ea:	b7 95       	ror	r27
    23ec:	88 0f       	add	r24, r24
    23ee:	91 1d       	adc	r25, r1
    23f0:	96 95       	lsr	r25
    23f2:	87 95       	ror	r24
    23f4:	97 f9       	bld	r25, 7
    23f6:	08 95       	ret

000023f8 <vfprintf>:
    23f8:	2f 92       	push	r2
    23fa:	3f 92       	push	r3
    23fc:	4f 92       	push	r4
    23fe:	5f 92       	push	r5
    2400:	6f 92       	push	r6
    2402:	7f 92       	push	r7
    2404:	8f 92       	push	r8
    2406:	9f 92       	push	r9
    2408:	af 92       	push	r10
    240a:	bf 92       	push	r11
    240c:	cf 92       	push	r12
    240e:	df 92       	push	r13
    2410:	ef 92       	push	r14
    2412:	ff 92       	push	r15
    2414:	0f 93       	push	r16
    2416:	1f 93       	push	r17
    2418:	cf 93       	push	r28
    241a:	df 93       	push	r29
    241c:	cd b7       	in	r28, 0x3d	; 61
    241e:	de b7       	in	r29, 0x3e	; 62
    2420:	60 97       	sbiw	r28, 0x10	; 16
    2422:	0f b6       	in	r0, 0x3f	; 63
    2424:	f8 94       	cli
    2426:	de bf       	out	0x3e, r29	; 62
    2428:	0f be       	out	0x3f, r0	; 63
    242a:	cd bf       	out	0x3d, r28	; 61
    242c:	7c 01       	movw	r14, r24
    242e:	1b 01       	movw	r2, r22
    2430:	6a 01       	movw	r12, r20
    2432:	fc 01       	movw	r30, r24
    2434:	17 82       	std	Z+7, r1	; 0x07
    2436:	16 82       	std	Z+6, r1	; 0x06
    2438:	83 81       	ldd	r24, Z+3	; 0x03
    243a:	81 ff       	sbrs	r24, 1
    243c:	2a c3       	rjmp	.+1620   	; 0x2a92 <vfprintf+0x69a>
    243e:	9e 01       	movw	r18, r28
    2440:	2f 5f       	subi	r18, 0xFF	; 255
    2442:	3f 4f       	sbci	r19, 0xFF	; 255
    2444:	39 01       	movw	r6, r18
    2446:	f7 01       	movw	r30, r14
    2448:	93 81       	ldd	r25, Z+3	; 0x03
    244a:	f1 01       	movw	r30, r2
    244c:	93 fd       	sbrc	r25, 3
    244e:	85 91       	lpm	r24, Z+
    2450:	93 ff       	sbrs	r25, 3
    2452:	81 91       	ld	r24, Z+
    2454:	1f 01       	movw	r2, r30
    2456:	88 23       	and	r24, r24
    2458:	09 f4       	brne	.+2      	; 0x245c <vfprintf+0x64>
    245a:	17 c3       	rjmp	.+1582   	; 0x2a8a <vfprintf+0x692>
    245c:	85 32       	cpi	r24, 0x25	; 37
    245e:	39 f4       	brne	.+14     	; 0x246e <vfprintf+0x76>
    2460:	93 fd       	sbrc	r25, 3
    2462:	85 91       	lpm	r24, Z+
    2464:	93 ff       	sbrs	r25, 3
    2466:	81 91       	ld	r24, Z+
    2468:	1f 01       	movw	r2, r30
    246a:	85 32       	cpi	r24, 0x25	; 37
    246c:	31 f4       	brne	.+12     	; 0x247a <vfprintf+0x82>
    246e:	b7 01       	movw	r22, r14
    2470:	90 e0       	ldi	r25, 0x00	; 0
    2472:	48 d4       	rcall	.+2192   	; 0x2d04 <fputc>
    2474:	56 01       	movw	r10, r12
    2476:	65 01       	movw	r12, r10
    2478:	e6 cf       	rjmp	.-52     	; 0x2446 <vfprintf+0x4e>
    247a:	10 e0       	ldi	r17, 0x00	; 0
    247c:	51 2c       	mov	r5, r1
    247e:	91 2c       	mov	r9, r1
    2480:	ff e1       	ldi	r31, 0x1F	; 31
    2482:	f9 15       	cp	r31, r9
    2484:	d8 f0       	brcs	.+54     	; 0x24bc <vfprintf+0xc4>
    2486:	8b 32       	cpi	r24, 0x2B	; 43
    2488:	79 f0       	breq	.+30     	; 0x24a8 <vfprintf+0xb0>
    248a:	38 f4       	brcc	.+14     	; 0x249a <vfprintf+0xa2>
    248c:	80 32       	cpi	r24, 0x20	; 32
    248e:	79 f0       	breq	.+30     	; 0x24ae <vfprintf+0xb6>
    2490:	83 32       	cpi	r24, 0x23	; 35
    2492:	a1 f4       	brne	.+40     	; 0x24bc <vfprintf+0xc4>
    2494:	f9 2d       	mov	r31, r9
    2496:	f0 61       	ori	r31, 0x10	; 16
    2498:	2e c0       	rjmp	.+92     	; 0x24f6 <vfprintf+0xfe>
    249a:	8d 32       	cpi	r24, 0x2D	; 45
    249c:	61 f0       	breq	.+24     	; 0x24b6 <vfprintf+0xbe>
    249e:	80 33       	cpi	r24, 0x30	; 48
    24a0:	69 f4       	brne	.+26     	; 0x24bc <vfprintf+0xc4>
    24a2:	29 2d       	mov	r18, r9
    24a4:	21 60       	ori	r18, 0x01	; 1
    24a6:	2d c0       	rjmp	.+90     	; 0x2502 <vfprintf+0x10a>
    24a8:	39 2d       	mov	r19, r9
    24aa:	32 60       	ori	r19, 0x02	; 2
    24ac:	93 2e       	mov	r9, r19
    24ae:	89 2d       	mov	r24, r9
    24b0:	84 60       	ori	r24, 0x04	; 4
    24b2:	98 2e       	mov	r9, r24
    24b4:	2a c0       	rjmp	.+84     	; 0x250a <vfprintf+0x112>
    24b6:	e9 2d       	mov	r30, r9
    24b8:	e8 60       	ori	r30, 0x08	; 8
    24ba:	15 c0       	rjmp	.+42     	; 0x24e6 <vfprintf+0xee>
    24bc:	97 fc       	sbrc	r9, 7
    24be:	2d c0       	rjmp	.+90     	; 0x251a <vfprintf+0x122>
    24c0:	20 ed       	ldi	r18, 0xD0	; 208
    24c2:	28 0f       	add	r18, r24
    24c4:	2a 30       	cpi	r18, 0x0A	; 10
    24c6:	88 f4       	brcc	.+34     	; 0x24ea <vfprintf+0xf2>
    24c8:	96 fe       	sbrs	r9, 6
    24ca:	06 c0       	rjmp	.+12     	; 0x24d8 <vfprintf+0xe0>
    24cc:	3a e0       	ldi	r19, 0x0A	; 10
    24ce:	13 9f       	mul	r17, r19
    24d0:	20 0d       	add	r18, r0
    24d2:	11 24       	eor	r1, r1
    24d4:	12 2f       	mov	r17, r18
    24d6:	19 c0       	rjmp	.+50     	; 0x250a <vfprintf+0x112>
    24d8:	8a e0       	ldi	r24, 0x0A	; 10
    24da:	58 9e       	mul	r5, r24
    24dc:	20 0d       	add	r18, r0
    24de:	11 24       	eor	r1, r1
    24e0:	52 2e       	mov	r5, r18
    24e2:	e9 2d       	mov	r30, r9
    24e4:	e0 62       	ori	r30, 0x20	; 32
    24e6:	9e 2e       	mov	r9, r30
    24e8:	10 c0       	rjmp	.+32     	; 0x250a <vfprintf+0x112>
    24ea:	8e 32       	cpi	r24, 0x2E	; 46
    24ec:	31 f4       	brne	.+12     	; 0x24fa <vfprintf+0x102>
    24ee:	96 fc       	sbrc	r9, 6
    24f0:	cc c2       	rjmp	.+1432   	; 0x2a8a <vfprintf+0x692>
    24f2:	f9 2d       	mov	r31, r9
    24f4:	f0 64       	ori	r31, 0x40	; 64
    24f6:	9f 2e       	mov	r9, r31
    24f8:	08 c0       	rjmp	.+16     	; 0x250a <vfprintf+0x112>
    24fa:	8c 36       	cpi	r24, 0x6C	; 108
    24fc:	21 f4       	brne	.+8      	; 0x2506 <vfprintf+0x10e>
    24fe:	29 2d       	mov	r18, r9
    2500:	20 68       	ori	r18, 0x80	; 128
    2502:	92 2e       	mov	r9, r18
    2504:	02 c0       	rjmp	.+4      	; 0x250a <vfprintf+0x112>
    2506:	88 36       	cpi	r24, 0x68	; 104
    2508:	41 f4       	brne	.+16     	; 0x251a <vfprintf+0x122>
    250a:	f1 01       	movw	r30, r2
    250c:	93 fd       	sbrc	r25, 3
    250e:	85 91       	lpm	r24, Z+
    2510:	93 ff       	sbrs	r25, 3
    2512:	81 91       	ld	r24, Z+
    2514:	1f 01       	movw	r2, r30
    2516:	81 11       	cpse	r24, r1
    2518:	b3 cf       	rjmp	.-154    	; 0x2480 <vfprintf+0x88>
    251a:	9b eb       	ldi	r25, 0xBB	; 187
    251c:	98 0f       	add	r25, r24
    251e:	93 30       	cpi	r25, 0x03	; 3
    2520:	20 f4       	brcc	.+8      	; 0x252a <vfprintf+0x132>
    2522:	99 2d       	mov	r25, r9
    2524:	90 61       	ori	r25, 0x10	; 16
    2526:	80 5e       	subi	r24, 0xE0	; 224
    2528:	07 c0       	rjmp	.+14     	; 0x2538 <vfprintf+0x140>
    252a:	9b e9       	ldi	r25, 0x9B	; 155
    252c:	98 0f       	add	r25, r24
    252e:	93 30       	cpi	r25, 0x03	; 3
    2530:	08 f0       	brcs	.+2      	; 0x2534 <vfprintf+0x13c>
    2532:	59 c1       	rjmp	.+690    	; 0x27e6 <vfprintf+0x3ee>
    2534:	99 2d       	mov	r25, r9
    2536:	9f 7e       	andi	r25, 0xEF	; 239
    2538:	96 ff       	sbrs	r25, 6
    253a:	16 e0       	ldi	r17, 0x06	; 6
    253c:	9f 73       	andi	r25, 0x3F	; 63
    253e:	99 2e       	mov	r9, r25
    2540:	85 36       	cpi	r24, 0x65	; 101
    2542:	19 f4       	brne	.+6      	; 0x254a <vfprintf+0x152>
    2544:	90 64       	ori	r25, 0x40	; 64
    2546:	99 2e       	mov	r9, r25
    2548:	08 c0       	rjmp	.+16     	; 0x255a <vfprintf+0x162>
    254a:	86 36       	cpi	r24, 0x66	; 102
    254c:	21 f4       	brne	.+8      	; 0x2556 <vfprintf+0x15e>
    254e:	39 2f       	mov	r19, r25
    2550:	30 68       	ori	r19, 0x80	; 128
    2552:	93 2e       	mov	r9, r19
    2554:	02 c0       	rjmp	.+4      	; 0x255a <vfprintf+0x162>
    2556:	11 11       	cpse	r17, r1
    2558:	11 50       	subi	r17, 0x01	; 1
    255a:	97 fe       	sbrs	r9, 7
    255c:	07 c0       	rjmp	.+14     	; 0x256c <vfprintf+0x174>
    255e:	1c 33       	cpi	r17, 0x3C	; 60
    2560:	50 f4       	brcc	.+20     	; 0x2576 <vfprintf+0x17e>
    2562:	44 24       	eor	r4, r4
    2564:	43 94       	inc	r4
    2566:	41 0e       	add	r4, r17
    2568:	27 e0       	ldi	r18, 0x07	; 7
    256a:	0b c0       	rjmp	.+22     	; 0x2582 <vfprintf+0x18a>
    256c:	18 30       	cpi	r17, 0x08	; 8
    256e:	38 f0       	brcs	.+14     	; 0x257e <vfprintf+0x186>
    2570:	27 e0       	ldi	r18, 0x07	; 7
    2572:	17 e0       	ldi	r17, 0x07	; 7
    2574:	05 c0       	rjmp	.+10     	; 0x2580 <vfprintf+0x188>
    2576:	27 e0       	ldi	r18, 0x07	; 7
    2578:	9c e3       	ldi	r25, 0x3C	; 60
    257a:	49 2e       	mov	r4, r25
    257c:	02 c0       	rjmp	.+4      	; 0x2582 <vfprintf+0x18a>
    257e:	21 2f       	mov	r18, r17
    2580:	41 2c       	mov	r4, r1
    2582:	56 01       	movw	r10, r12
    2584:	84 e0       	ldi	r24, 0x04	; 4
    2586:	a8 0e       	add	r10, r24
    2588:	b1 1c       	adc	r11, r1
    258a:	f6 01       	movw	r30, r12
    258c:	60 81       	ld	r22, Z
    258e:	71 81       	ldd	r23, Z+1	; 0x01
    2590:	82 81       	ldd	r24, Z+2	; 0x02
    2592:	93 81       	ldd	r25, Z+3	; 0x03
    2594:	04 2d       	mov	r16, r4
    2596:	a3 01       	movw	r20, r6
    2598:	c7 d2       	rcall	.+1422   	; 0x2b28 <__ftoa_engine>
    259a:	6c 01       	movw	r12, r24
    259c:	f9 81       	ldd	r31, Y+1	; 0x01
    259e:	fc 87       	std	Y+12, r31	; 0x0c
    25a0:	f0 ff       	sbrs	r31, 0
    25a2:	02 c0       	rjmp	.+4      	; 0x25a8 <vfprintf+0x1b0>
    25a4:	f3 ff       	sbrs	r31, 3
    25a6:	06 c0       	rjmp	.+12     	; 0x25b4 <vfprintf+0x1bc>
    25a8:	91 fc       	sbrc	r9, 1
    25aa:	06 c0       	rjmp	.+12     	; 0x25b8 <vfprintf+0x1c0>
    25ac:	92 fe       	sbrs	r9, 2
    25ae:	06 c0       	rjmp	.+12     	; 0x25bc <vfprintf+0x1c4>
    25b0:	00 e2       	ldi	r16, 0x20	; 32
    25b2:	05 c0       	rjmp	.+10     	; 0x25be <vfprintf+0x1c6>
    25b4:	0d e2       	ldi	r16, 0x2D	; 45
    25b6:	03 c0       	rjmp	.+6      	; 0x25be <vfprintf+0x1c6>
    25b8:	0b e2       	ldi	r16, 0x2B	; 43
    25ba:	01 c0       	rjmp	.+2      	; 0x25be <vfprintf+0x1c6>
    25bc:	00 e0       	ldi	r16, 0x00	; 0
    25be:	8c 85       	ldd	r24, Y+12	; 0x0c
    25c0:	8c 70       	andi	r24, 0x0C	; 12
    25c2:	19 f0       	breq	.+6      	; 0x25ca <vfprintf+0x1d2>
    25c4:	01 11       	cpse	r16, r1
    25c6:	43 c2       	rjmp	.+1158   	; 0x2a4e <vfprintf+0x656>
    25c8:	80 c2       	rjmp	.+1280   	; 0x2aca <vfprintf+0x6d2>
    25ca:	97 fe       	sbrs	r9, 7
    25cc:	10 c0       	rjmp	.+32     	; 0x25ee <vfprintf+0x1f6>
    25ce:	4c 0c       	add	r4, r12
    25d0:	fc 85       	ldd	r31, Y+12	; 0x0c
    25d2:	f4 ff       	sbrs	r31, 4
    25d4:	04 c0       	rjmp	.+8      	; 0x25de <vfprintf+0x1e6>
    25d6:	8a 81       	ldd	r24, Y+2	; 0x02
    25d8:	81 33       	cpi	r24, 0x31	; 49
    25da:	09 f4       	brne	.+2      	; 0x25de <vfprintf+0x1e6>
    25dc:	4a 94       	dec	r4
    25de:	14 14       	cp	r1, r4
    25e0:	74 f5       	brge	.+92     	; 0x263e <vfprintf+0x246>
    25e2:	28 e0       	ldi	r18, 0x08	; 8
    25e4:	24 15       	cp	r18, r4
    25e6:	78 f5       	brcc	.+94     	; 0x2646 <vfprintf+0x24e>
    25e8:	88 e0       	ldi	r24, 0x08	; 8
    25ea:	48 2e       	mov	r4, r24
    25ec:	2c c0       	rjmp	.+88     	; 0x2646 <vfprintf+0x24e>
    25ee:	96 fc       	sbrc	r9, 6
    25f0:	2a c0       	rjmp	.+84     	; 0x2646 <vfprintf+0x24e>
    25f2:	81 2f       	mov	r24, r17
    25f4:	90 e0       	ldi	r25, 0x00	; 0
    25f6:	8c 15       	cp	r24, r12
    25f8:	9d 05       	cpc	r25, r13
    25fa:	9c f0       	brlt	.+38     	; 0x2622 <vfprintf+0x22a>
    25fc:	3c ef       	ldi	r19, 0xFC	; 252
    25fe:	c3 16       	cp	r12, r19
    2600:	3f ef       	ldi	r19, 0xFF	; 255
    2602:	d3 06       	cpc	r13, r19
    2604:	74 f0       	brlt	.+28     	; 0x2622 <vfprintf+0x22a>
    2606:	89 2d       	mov	r24, r9
    2608:	80 68       	ori	r24, 0x80	; 128
    260a:	98 2e       	mov	r9, r24
    260c:	0a c0       	rjmp	.+20     	; 0x2622 <vfprintf+0x22a>
    260e:	e2 e0       	ldi	r30, 0x02	; 2
    2610:	f0 e0       	ldi	r31, 0x00	; 0
    2612:	ec 0f       	add	r30, r28
    2614:	fd 1f       	adc	r31, r29
    2616:	e1 0f       	add	r30, r17
    2618:	f1 1d       	adc	r31, r1
    261a:	80 81       	ld	r24, Z
    261c:	80 33       	cpi	r24, 0x30	; 48
    261e:	19 f4       	brne	.+6      	; 0x2626 <vfprintf+0x22e>
    2620:	11 50       	subi	r17, 0x01	; 1
    2622:	11 11       	cpse	r17, r1
    2624:	f4 cf       	rjmp	.-24     	; 0x260e <vfprintf+0x216>
    2626:	97 fe       	sbrs	r9, 7
    2628:	0e c0       	rjmp	.+28     	; 0x2646 <vfprintf+0x24e>
    262a:	44 24       	eor	r4, r4
    262c:	43 94       	inc	r4
    262e:	41 0e       	add	r4, r17
    2630:	81 2f       	mov	r24, r17
    2632:	90 e0       	ldi	r25, 0x00	; 0
    2634:	c8 16       	cp	r12, r24
    2636:	d9 06       	cpc	r13, r25
    2638:	2c f4       	brge	.+10     	; 0x2644 <vfprintf+0x24c>
    263a:	1c 19       	sub	r17, r12
    263c:	04 c0       	rjmp	.+8      	; 0x2646 <vfprintf+0x24e>
    263e:	44 24       	eor	r4, r4
    2640:	43 94       	inc	r4
    2642:	01 c0       	rjmp	.+2      	; 0x2646 <vfprintf+0x24e>
    2644:	10 e0       	ldi	r17, 0x00	; 0
    2646:	97 fe       	sbrs	r9, 7
    2648:	06 c0       	rjmp	.+12     	; 0x2656 <vfprintf+0x25e>
    264a:	1c 14       	cp	r1, r12
    264c:	1d 04       	cpc	r1, r13
    264e:	34 f4       	brge	.+12     	; 0x265c <vfprintf+0x264>
    2650:	c6 01       	movw	r24, r12
    2652:	01 96       	adiw	r24, 0x01	; 1
    2654:	05 c0       	rjmp	.+10     	; 0x2660 <vfprintf+0x268>
    2656:	85 e0       	ldi	r24, 0x05	; 5
    2658:	90 e0       	ldi	r25, 0x00	; 0
    265a:	02 c0       	rjmp	.+4      	; 0x2660 <vfprintf+0x268>
    265c:	81 e0       	ldi	r24, 0x01	; 1
    265e:	90 e0       	ldi	r25, 0x00	; 0
    2660:	01 11       	cpse	r16, r1
    2662:	01 96       	adiw	r24, 0x01	; 1
    2664:	11 23       	and	r17, r17
    2666:	31 f0       	breq	.+12     	; 0x2674 <vfprintf+0x27c>
    2668:	21 2f       	mov	r18, r17
    266a:	30 e0       	ldi	r19, 0x00	; 0
    266c:	2f 5f       	subi	r18, 0xFF	; 255
    266e:	3f 4f       	sbci	r19, 0xFF	; 255
    2670:	82 0f       	add	r24, r18
    2672:	93 1f       	adc	r25, r19
    2674:	25 2d       	mov	r18, r5
    2676:	30 e0       	ldi	r19, 0x00	; 0
    2678:	82 17       	cp	r24, r18
    267a:	93 07       	cpc	r25, r19
    267c:	14 f4       	brge	.+4      	; 0x2682 <vfprintf+0x28a>
    267e:	58 1a       	sub	r5, r24
    2680:	01 c0       	rjmp	.+2      	; 0x2684 <vfprintf+0x28c>
    2682:	51 2c       	mov	r5, r1
    2684:	89 2d       	mov	r24, r9
    2686:	89 70       	andi	r24, 0x09	; 9
    2688:	41 f4       	brne	.+16     	; 0x269a <vfprintf+0x2a2>
    268a:	55 20       	and	r5, r5
    268c:	31 f0       	breq	.+12     	; 0x269a <vfprintf+0x2a2>
    268e:	b7 01       	movw	r22, r14
    2690:	80 e2       	ldi	r24, 0x20	; 32
    2692:	90 e0       	ldi	r25, 0x00	; 0
    2694:	37 d3       	rcall	.+1646   	; 0x2d04 <fputc>
    2696:	5a 94       	dec	r5
    2698:	f8 cf       	rjmp	.-16     	; 0x268a <vfprintf+0x292>
    269a:	00 23       	and	r16, r16
    269c:	21 f0       	breq	.+8      	; 0x26a6 <vfprintf+0x2ae>
    269e:	b7 01       	movw	r22, r14
    26a0:	80 2f       	mov	r24, r16
    26a2:	90 e0       	ldi	r25, 0x00	; 0
    26a4:	2f d3       	rcall	.+1630   	; 0x2d04 <fputc>
    26a6:	93 fc       	sbrc	r9, 3
    26a8:	08 c0       	rjmp	.+16     	; 0x26ba <vfprintf+0x2c2>
    26aa:	55 20       	and	r5, r5
    26ac:	31 f0       	breq	.+12     	; 0x26ba <vfprintf+0x2c2>
    26ae:	b7 01       	movw	r22, r14
    26b0:	80 e3       	ldi	r24, 0x30	; 48
    26b2:	90 e0       	ldi	r25, 0x00	; 0
    26b4:	27 d3       	rcall	.+1614   	; 0x2d04 <fputc>
    26b6:	5a 94       	dec	r5
    26b8:	f8 cf       	rjmp	.-16     	; 0x26aa <vfprintf+0x2b2>
    26ba:	97 fe       	sbrs	r9, 7
    26bc:	4a c0       	rjmp	.+148    	; 0x2752 <vfprintf+0x35a>
    26be:	46 01       	movw	r8, r12
    26c0:	d7 fe       	sbrs	r13, 7
    26c2:	02 c0       	rjmp	.+4      	; 0x26c8 <vfprintf+0x2d0>
    26c4:	81 2c       	mov	r8, r1
    26c6:	91 2c       	mov	r9, r1
    26c8:	c6 01       	movw	r24, r12
    26ca:	88 19       	sub	r24, r8
    26cc:	99 09       	sbc	r25, r9
    26ce:	f3 01       	movw	r30, r6
    26d0:	e8 0f       	add	r30, r24
    26d2:	f9 1f       	adc	r31, r25
    26d4:	fe 87       	std	Y+14, r31	; 0x0e
    26d6:	ed 87       	std	Y+13, r30	; 0x0d
    26d8:	96 01       	movw	r18, r12
    26da:	24 19       	sub	r18, r4
    26dc:	31 09       	sbc	r19, r1
    26de:	38 8b       	std	Y+16, r19	; 0x10
    26e0:	2f 87       	std	Y+15, r18	; 0x0f
    26e2:	01 2f       	mov	r16, r17
    26e4:	10 e0       	ldi	r17, 0x00	; 0
    26e6:	11 95       	neg	r17
    26e8:	01 95       	neg	r16
    26ea:	11 09       	sbc	r17, r1
    26ec:	3f ef       	ldi	r19, 0xFF	; 255
    26ee:	83 16       	cp	r8, r19
    26f0:	93 06       	cpc	r9, r19
    26f2:	21 f4       	brne	.+8      	; 0x26fc <vfprintf+0x304>
    26f4:	b7 01       	movw	r22, r14
    26f6:	8e e2       	ldi	r24, 0x2E	; 46
    26f8:	90 e0       	ldi	r25, 0x00	; 0
    26fa:	04 d3       	rcall	.+1544   	; 0x2d04 <fputc>
    26fc:	c8 14       	cp	r12, r8
    26fe:	d9 04       	cpc	r13, r9
    2700:	4c f0       	brlt	.+18     	; 0x2714 <vfprintf+0x31c>
    2702:	8f 85       	ldd	r24, Y+15	; 0x0f
    2704:	98 89       	ldd	r25, Y+16	; 0x10
    2706:	88 15       	cp	r24, r8
    2708:	99 05       	cpc	r25, r9
    270a:	24 f4       	brge	.+8      	; 0x2714 <vfprintf+0x31c>
    270c:	ed 85       	ldd	r30, Y+13	; 0x0d
    270e:	fe 85       	ldd	r31, Y+14	; 0x0e
    2710:	81 81       	ldd	r24, Z+1	; 0x01
    2712:	01 c0       	rjmp	.+2      	; 0x2716 <vfprintf+0x31e>
    2714:	80 e3       	ldi	r24, 0x30	; 48
    2716:	f1 e0       	ldi	r31, 0x01	; 1
    2718:	8f 1a       	sub	r8, r31
    271a:	91 08       	sbc	r9, r1
    271c:	2d 85       	ldd	r18, Y+13	; 0x0d
    271e:	3e 85       	ldd	r19, Y+14	; 0x0e
    2720:	2f 5f       	subi	r18, 0xFF	; 255
    2722:	3f 4f       	sbci	r19, 0xFF	; 255
    2724:	3e 87       	std	Y+14, r19	; 0x0e
    2726:	2d 87       	std	Y+13, r18	; 0x0d
    2728:	80 16       	cp	r8, r16
    272a:	91 06       	cpc	r9, r17
    272c:	24 f0       	brlt	.+8      	; 0x2736 <vfprintf+0x33e>
    272e:	b7 01       	movw	r22, r14
    2730:	90 e0       	ldi	r25, 0x00	; 0
    2732:	e8 d2       	rcall	.+1488   	; 0x2d04 <fputc>
    2734:	db cf       	rjmp	.-74     	; 0x26ec <vfprintf+0x2f4>
    2736:	c8 14       	cp	r12, r8
    2738:	d9 04       	cpc	r13, r9
    273a:	41 f4       	brne	.+16     	; 0x274c <vfprintf+0x354>
    273c:	9a 81       	ldd	r25, Y+2	; 0x02
    273e:	96 33       	cpi	r25, 0x36	; 54
    2740:	20 f4       	brcc	.+8      	; 0x274a <vfprintf+0x352>
    2742:	95 33       	cpi	r25, 0x35	; 53
    2744:	19 f4       	brne	.+6      	; 0x274c <vfprintf+0x354>
    2746:	3c 85       	ldd	r19, Y+12	; 0x0c
    2748:	34 ff       	sbrs	r19, 4
    274a:	81 e3       	ldi	r24, 0x31	; 49
    274c:	b7 01       	movw	r22, r14
    274e:	90 e0       	ldi	r25, 0x00	; 0
    2750:	48 c0       	rjmp	.+144    	; 0x27e2 <vfprintf+0x3ea>
    2752:	8a 81       	ldd	r24, Y+2	; 0x02
    2754:	81 33       	cpi	r24, 0x31	; 49
    2756:	19 f0       	breq	.+6      	; 0x275e <vfprintf+0x366>
    2758:	9c 85       	ldd	r25, Y+12	; 0x0c
    275a:	9f 7e       	andi	r25, 0xEF	; 239
    275c:	9c 87       	std	Y+12, r25	; 0x0c
    275e:	b7 01       	movw	r22, r14
    2760:	90 e0       	ldi	r25, 0x00	; 0
    2762:	d0 d2       	rcall	.+1440   	; 0x2d04 <fputc>
    2764:	11 11       	cpse	r17, r1
    2766:	05 c0       	rjmp	.+10     	; 0x2772 <vfprintf+0x37a>
    2768:	94 fc       	sbrc	r9, 4
    276a:	16 c0       	rjmp	.+44     	; 0x2798 <vfprintf+0x3a0>
    276c:	85 e6       	ldi	r24, 0x65	; 101
    276e:	90 e0       	ldi	r25, 0x00	; 0
    2770:	15 c0       	rjmp	.+42     	; 0x279c <vfprintf+0x3a4>
    2772:	b7 01       	movw	r22, r14
    2774:	8e e2       	ldi	r24, 0x2E	; 46
    2776:	90 e0       	ldi	r25, 0x00	; 0
    2778:	c5 d2       	rcall	.+1418   	; 0x2d04 <fputc>
    277a:	1e 5f       	subi	r17, 0xFE	; 254
    277c:	82 e0       	ldi	r24, 0x02	; 2
    277e:	01 e0       	ldi	r16, 0x01	; 1
    2780:	08 0f       	add	r16, r24
    2782:	f3 01       	movw	r30, r6
    2784:	e8 0f       	add	r30, r24
    2786:	f1 1d       	adc	r31, r1
    2788:	80 81       	ld	r24, Z
    278a:	b7 01       	movw	r22, r14
    278c:	90 e0       	ldi	r25, 0x00	; 0
    278e:	ba d2       	rcall	.+1396   	; 0x2d04 <fputc>
    2790:	80 2f       	mov	r24, r16
    2792:	01 13       	cpse	r16, r17
    2794:	f4 cf       	rjmp	.-24     	; 0x277e <vfprintf+0x386>
    2796:	e8 cf       	rjmp	.-48     	; 0x2768 <vfprintf+0x370>
    2798:	85 e4       	ldi	r24, 0x45	; 69
    279a:	90 e0       	ldi	r25, 0x00	; 0
    279c:	b7 01       	movw	r22, r14
    279e:	b2 d2       	rcall	.+1380   	; 0x2d04 <fputc>
    27a0:	d7 fc       	sbrc	r13, 7
    27a2:	06 c0       	rjmp	.+12     	; 0x27b0 <vfprintf+0x3b8>
    27a4:	c1 14       	cp	r12, r1
    27a6:	d1 04       	cpc	r13, r1
    27a8:	41 f4       	brne	.+16     	; 0x27ba <vfprintf+0x3c2>
    27aa:	ec 85       	ldd	r30, Y+12	; 0x0c
    27ac:	e4 ff       	sbrs	r30, 4
    27ae:	05 c0       	rjmp	.+10     	; 0x27ba <vfprintf+0x3c2>
    27b0:	d1 94       	neg	r13
    27b2:	c1 94       	neg	r12
    27b4:	d1 08       	sbc	r13, r1
    27b6:	8d e2       	ldi	r24, 0x2D	; 45
    27b8:	01 c0       	rjmp	.+2      	; 0x27bc <vfprintf+0x3c4>
    27ba:	8b e2       	ldi	r24, 0x2B	; 43
    27bc:	b7 01       	movw	r22, r14
    27be:	90 e0       	ldi	r25, 0x00	; 0
    27c0:	a1 d2       	rcall	.+1346   	; 0x2d04 <fputc>
    27c2:	80 e3       	ldi	r24, 0x30	; 48
    27c4:	2a e0       	ldi	r18, 0x0A	; 10
    27c6:	c2 16       	cp	r12, r18
    27c8:	d1 04       	cpc	r13, r1
    27ca:	2c f0       	brlt	.+10     	; 0x27d6 <vfprintf+0x3de>
    27cc:	8f 5f       	subi	r24, 0xFF	; 255
    27ce:	fa e0       	ldi	r31, 0x0A	; 10
    27d0:	cf 1a       	sub	r12, r31
    27d2:	d1 08       	sbc	r13, r1
    27d4:	f7 cf       	rjmp	.-18     	; 0x27c4 <vfprintf+0x3cc>
    27d6:	b7 01       	movw	r22, r14
    27d8:	90 e0       	ldi	r25, 0x00	; 0
    27da:	94 d2       	rcall	.+1320   	; 0x2d04 <fputc>
    27dc:	b7 01       	movw	r22, r14
    27de:	c6 01       	movw	r24, r12
    27e0:	c0 96       	adiw	r24, 0x30	; 48
    27e2:	90 d2       	rcall	.+1312   	; 0x2d04 <fputc>
    27e4:	49 c1       	rjmp	.+658    	; 0x2a78 <vfprintf+0x680>
    27e6:	83 36       	cpi	r24, 0x63	; 99
    27e8:	31 f0       	breq	.+12     	; 0x27f6 <vfprintf+0x3fe>
    27ea:	83 37       	cpi	r24, 0x73	; 115
    27ec:	79 f0       	breq	.+30     	; 0x280c <vfprintf+0x414>
    27ee:	83 35       	cpi	r24, 0x53	; 83
    27f0:	09 f0       	breq	.+2      	; 0x27f4 <vfprintf+0x3fc>
    27f2:	52 c0       	rjmp	.+164    	; 0x2898 <vfprintf+0x4a0>
    27f4:	1f c0       	rjmp	.+62     	; 0x2834 <vfprintf+0x43c>
    27f6:	56 01       	movw	r10, r12
    27f8:	32 e0       	ldi	r19, 0x02	; 2
    27fa:	a3 0e       	add	r10, r19
    27fc:	b1 1c       	adc	r11, r1
    27fe:	f6 01       	movw	r30, r12
    2800:	80 81       	ld	r24, Z
    2802:	89 83       	std	Y+1, r24	; 0x01
    2804:	01 e0       	ldi	r16, 0x01	; 1
    2806:	10 e0       	ldi	r17, 0x00	; 0
    2808:	63 01       	movw	r12, r6
    280a:	11 c0       	rjmp	.+34     	; 0x282e <vfprintf+0x436>
    280c:	56 01       	movw	r10, r12
    280e:	f2 e0       	ldi	r31, 0x02	; 2
    2810:	af 0e       	add	r10, r31
    2812:	b1 1c       	adc	r11, r1
    2814:	f6 01       	movw	r30, r12
    2816:	c0 80       	ld	r12, Z
    2818:	d1 80       	ldd	r13, Z+1	; 0x01
    281a:	96 fe       	sbrs	r9, 6
    281c:	03 c0       	rjmp	.+6      	; 0x2824 <vfprintf+0x42c>
    281e:	61 2f       	mov	r22, r17
    2820:	70 e0       	ldi	r23, 0x00	; 0
    2822:	02 c0       	rjmp	.+4      	; 0x2828 <vfprintf+0x430>
    2824:	6f ef       	ldi	r22, 0xFF	; 255
    2826:	7f ef       	ldi	r23, 0xFF	; 255
    2828:	c6 01       	movw	r24, r12
    282a:	61 d2       	rcall	.+1218   	; 0x2cee <strnlen>
    282c:	8c 01       	movw	r16, r24
    282e:	f9 2d       	mov	r31, r9
    2830:	ff 77       	andi	r31, 0x7F	; 127
    2832:	13 c0       	rjmp	.+38     	; 0x285a <vfprintf+0x462>
    2834:	56 01       	movw	r10, r12
    2836:	22 e0       	ldi	r18, 0x02	; 2
    2838:	a2 0e       	add	r10, r18
    283a:	b1 1c       	adc	r11, r1
    283c:	f6 01       	movw	r30, r12
    283e:	c0 80       	ld	r12, Z
    2840:	d1 80       	ldd	r13, Z+1	; 0x01
    2842:	96 fe       	sbrs	r9, 6
    2844:	03 c0       	rjmp	.+6      	; 0x284c <vfprintf+0x454>
    2846:	61 2f       	mov	r22, r17
    2848:	70 e0       	ldi	r23, 0x00	; 0
    284a:	02 c0       	rjmp	.+4      	; 0x2850 <vfprintf+0x458>
    284c:	6f ef       	ldi	r22, 0xFF	; 255
    284e:	7f ef       	ldi	r23, 0xFF	; 255
    2850:	c6 01       	movw	r24, r12
    2852:	42 d2       	rcall	.+1156   	; 0x2cd8 <strnlen_P>
    2854:	8c 01       	movw	r16, r24
    2856:	f9 2d       	mov	r31, r9
    2858:	f0 68       	ori	r31, 0x80	; 128
    285a:	9f 2e       	mov	r9, r31
    285c:	f3 fd       	sbrc	r31, 3
    285e:	18 c0       	rjmp	.+48     	; 0x2890 <vfprintf+0x498>
    2860:	85 2d       	mov	r24, r5
    2862:	90 e0       	ldi	r25, 0x00	; 0
    2864:	08 17       	cp	r16, r24
    2866:	19 07       	cpc	r17, r25
    2868:	98 f4       	brcc	.+38     	; 0x2890 <vfprintf+0x498>
    286a:	b7 01       	movw	r22, r14
    286c:	80 e2       	ldi	r24, 0x20	; 32
    286e:	90 e0       	ldi	r25, 0x00	; 0
    2870:	49 d2       	rcall	.+1170   	; 0x2d04 <fputc>
    2872:	5a 94       	dec	r5
    2874:	f5 cf       	rjmp	.-22     	; 0x2860 <vfprintf+0x468>
    2876:	f6 01       	movw	r30, r12
    2878:	97 fc       	sbrc	r9, 7
    287a:	85 91       	lpm	r24, Z+
    287c:	97 fe       	sbrs	r9, 7
    287e:	81 91       	ld	r24, Z+
    2880:	6f 01       	movw	r12, r30
    2882:	b7 01       	movw	r22, r14
    2884:	90 e0       	ldi	r25, 0x00	; 0
    2886:	3e d2       	rcall	.+1148   	; 0x2d04 <fputc>
    2888:	51 10       	cpse	r5, r1
    288a:	5a 94       	dec	r5
    288c:	01 50       	subi	r16, 0x01	; 1
    288e:	11 09       	sbc	r17, r1
    2890:	01 15       	cp	r16, r1
    2892:	11 05       	cpc	r17, r1
    2894:	81 f7       	brne	.-32     	; 0x2876 <vfprintf+0x47e>
    2896:	f0 c0       	rjmp	.+480    	; 0x2a78 <vfprintf+0x680>
    2898:	84 36       	cpi	r24, 0x64	; 100
    289a:	11 f0       	breq	.+4      	; 0x28a0 <vfprintf+0x4a8>
    289c:	89 36       	cpi	r24, 0x69	; 105
    289e:	59 f5       	brne	.+86     	; 0x28f6 <vfprintf+0x4fe>
    28a0:	56 01       	movw	r10, r12
    28a2:	97 fe       	sbrs	r9, 7
    28a4:	09 c0       	rjmp	.+18     	; 0x28b8 <vfprintf+0x4c0>
    28a6:	24 e0       	ldi	r18, 0x04	; 4
    28a8:	a2 0e       	add	r10, r18
    28aa:	b1 1c       	adc	r11, r1
    28ac:	f6 01       	movw	r30, r12
    28ae:	60 81       	ld	r22, Z
    28b0:	71 81       	ldd	r23, Z+1	; 0x01
    28b2:	82 81       	ldd	r24, Z+2	; 0x02
    28b4:	93 81       	ldd	r25, Z+3	; 0x03
    28b6:	0a c0       	rjmp	.+20     	; 0x28cc <vfprintf+0x4d4>
    28b8:	f2 e0       	ldi	r31, 0x02	; 2
    28ba:	af 0e       	add	r10, r31
    28bc:	b1 1c       	adc	r11, r1
    28be:	f6 01       	movw	r30, r12
    28c0:	60 81       	ld	r22, Z
    28c2:	71 81       	ldd	r23, Z+1	; 0x01
    28c4:	07 2e       	mov	r0, r23
    28c6:	00 0c       	add	r0, r0
    28c8:	88 0b       	sbc	r24, r24
    28ca:	99 0b       	sbc	r25, r25
    28cc:	f9 2d       	mov	r31, r9
    28ce:	ff 76       	andi	r31, 0x6F	; 111
    28d0:	9f 2e       	mov	r9, r31
    28d2:	97 ff       	sbrs	r25, 7
    28d4:	09 c0       	rjmp	.+18     	; 0x28e8 <vfprintf+0x4f0>
    28d6:	90 95       	com	r25
    28d8:	80 95       	com	r24
    28da:	70 95       	com	r23
    28dc:	61 95       	neg	r22
    28de:	7f 4f       	sbci	r23, 0xFF	; 255
    28e0:	8f 4f       	sbci	r24, 0xFF	; 255
    28e2:	9f 4f       	sbci	r25, 0xFF	; 255
    28e4:	f0 68       	ori	r31, 0x80	; 128
    28e6:	9f 2e       	mov	r9, r31
    28e8:	2a e0       	ldi	r18, 0x0A	; 10
    28ea:	30 e0       	ldi	r19, 0x00	; 0
    28ec:	a3 01       	movw	r20, r6
    28ee:	46 d2       	rcall	.+1164   	; 0x2d7c <__ultoa_invert>
    28f0:	c8 2e       	mov	r12, r24
    28f2:	c6 18       	sub	r12, r6
    28f4:	3e c0       	rjmp	.+124    	; 0x2972 <vfprintf+0x57a>
    28f6:	09 2d       	mov	r16, r9
    28f8:	85 37       	cpi	r24, 0x75	; 117
    28fa:	21 f4       	brne	.+8      	; 0x2904 <vfprintf+0x50c>
    28fc:	0f 7e       	andi	r16, 0xEF	; 239
    28fe:	2a e0       	ldi	r18, 0x0A	; 10
    2900:	30 e0       	ldi	r19, 0x00	; 0
    2902:	1d c0       	rjmp	.+58     	; 0x293e <vfprintf+0x546>
    2904:	09 7f       	andi	r16, 0xF9	; 249
    2906:	8f 36       	cpi	r24, 0x6F	; 111
    2908:	91 f0       	breq	.+36     	; 0x292e <vfprintf+0x536>
    290a:	18 f4       	brcc	.+6      	; 0x2912 <vfprintf+0x51a>
    290c:	88 35       	cpi	r24, 0x58	; 88
    290e:	59 f0       	breq	.+22     	; 0x2926 <vfprintf+0x52e>
    2910:	bc c0       	rjmp	.+376    	; 0x2a8a <vfprintf+0x692>
    2912:	80 37       	cpi	r24, 0x70	; 112
    2914:	19 f0       	breq	.+6      	; 0x291c <vfprintf+0x524>
    2916:	88 37       	cpi	r24, 0x78	; 120
    2918:	11 f0       	breq	.+4      	; 0x291e <vfprintf+0x526>
    291a:	b7 c0       	rjmp	.+366    	; 0x2a8a <vfprintf+0x692>
    291c:	00 61       	ori	r16, 0x10	; 16
    291e:	04 ff       	sbrs	r16, 4
    2920:	09 c0       	rjmp	.+18     	; 0x2934 <vfprintf+0x53c>
    2922:	04 60       	ori	r16, 0x04	; 4
    2924:	07 c0       	rjmp	.+14     	; 0x2934 <vfprintf+0x53c>
    2926:	94 fe       	sbrs	r9, 4
    2928:	08 c0       	rjmp	.+16     	; 0x293a <vfprintf+0x542>
    292a:	06 60       	ori	r16, 0x06	; 6
    292c:	06 c0       	rjmp	.+12     	; 0x293a <vfprintf+0x542>
    292e:	28 e0       	ldi	r18, 0x08	; 8
    2930:	30 e0       	ldi	r19, 0x00	; 0
    2932:	05 c0       	rjmp	.+10     	; 0x293e <vfprintf+0x546>
    2934:	20 e1       	ldi	r18, 0x10	; 16
    2936:	30 e0       	ldi	r19, 0x00	; 0
    2938:	02 c0       	rjmp	.+4      	; 0x293e <vfprintf+0x546>
    293a:	20 e1       	ldi	r18, 0x10	; 16
    293c:	32 e0       	ldi	r19, 0x02	; 2
    293e:	56 01       	movw	r10, r12
    2940:	07 ff       	sbrs	r16, 7
    2942:	09 c0       	rjmp	.+18     	; 0x2956 <vfprintf+0x55e>
    2944:	84 e0       	ldi	r24, 0x04	; 4
    2946:	a8 0e       	add	r10, r24
    2948:	b1 1c       	adc	r11, r1
    294a:	f6 01       	movw	r30, r12
    294c:	60 81       	ld	r22, Z
    294e:	71 81       	ldd	r23, Z+1	; 0x01
    2950:	82 81       	ldd	r24, Z+2	; 0x02
    2952:	93 81       	ldd	r25, Z+3	; 0x03
    2954:	08 c0       	rjmp	.+16     	; 0x2966 <vfprintf+0x56e>
    2956:	f2 e0       	ldi	r31, 0x02	; 2
    2958:	af 0e       	add	r10, r31
    295a:	b1 1c       	adc	r11, r1
    295c:	f6 01       	movw	r30, r12
    295e:	60 81       	ld	r22, Z
    2960:	71 81       	ldd	r23, Z+1	; 0x01
    2962:	80 e0       	ldi	r24, 0x00	; 0
    2964:	90 e0       	ldi	r25, 0x00	; 0
    2966:	a3 01       	movw	r20, r6
    2968:	09 d2       	rcall	.+1042   	; 0x2d7c <__ultoa_invert>
    296a:	c8 2e       	mov	r12, r24
    296c:	c6 18       	sub	r12, r6
    296e:	0f 77       	andi	r16, 0x7F	; 127
    2970:	90 2e       	mov	r9, r16
    2972:	96 fe       	sbrs	r9, 6
    2974:	0b c0       	rjmp	.+22     	; 0x298c <vfprintf+0x594>
    2976:	09 2d       	mov	r16, r9
    2978:	0e 7f       	andi	r16, 0xFE	; 254
    297a:	c1 16       	cp	r12, r17
    297c:	50 f4       	brcc	.+20     	; 0x2992 <vfprintf+0x59a>
    297e:	94 fe       	sbrs	r9, 4
    2980:	0a c0       	rjmp	.+20     	; 0x2996 <vfprintf+0x59e>
    2982:	92 fc       	sbrc	r9, 2
    2984:	08 c0       	rjmp	.+16     	; 0x2996 <vfprintf+0x59e>
    2986:	09 2d       	mov	r16, r9
    2988:	0e 7e       	andi	r16, 0xEE	; 238
    298a:	05 c0       	rjmp	.+10     	; 0x2996 <vfprintf+0x59e>
    298c:	dc 2c       	mov	r13, r12
    298e:	09 2d       	mov	r16, r9
    2990:	03 c0       	rjmp	.+6      	; 0x2998 <vfprintf+0x5a0>
    2992:	dc 2c       	mov	r13, r12
    2994:	01 c0       	rjmp	.+2      	; 0x2998 <vfprintf+0x5a0>
    2996:	d1 2e       	mov	r13, r17
    2998:	04 ff       	sbrs	r16, 4
    299a:	0d c0       	rjmp	.+26     	; 0x29b6 <vfprintf+0x5be>
    299c:	fe 01       	movw	r30, r28
    299e:	ec 0d       	add	r30, r12
    29a0:	f1 1d       	adc	r31, r1
    29a2:	80 81       	ld	r24, Z
    29a4:	80 33       	cpi	r24, 0x30	; 48
    29a6:	11 f4       	brne	.+4      	; 0x29ac <vfprintf+0x5b4>
    29a8:	09 7e       	andi	r16, 0xE9	; 233
    29aa:	09 c0       	rjmp	.+18     	; 0x29be <vfprintf+0x5c6>
    29ac:	02 ff       	sbrs	r16, 2
    29ae:	06 c0       	rjmp	.+12     	; 0x29bc <vfprintf+0x5c4>
    29b0:	d3 94       	inc	r13
    29b2:	d3 94       	inc	r13
    29b4:	04 c0       	rjmp	.+8      	; 0x29be <vfprintf+0x5c6>
    29b6:	80 2f       	mov	r24, r16
    29b8:	86 78       	andi	r24, 0x86	; 134
    29ba:	09 f0       	breq	.+2      	; 0x29be <vfprintf+0x5c6>
    29bc:	d3 94       	inc	r13
    29be:	03 fd       	sbrc	r16, 3
    29c0:	10 c0       	rjmp	.+32     	; 0x29e2 <vfprintf+0x5ea>
    29c2:	00 ff       	sbrs	r16, 0
    29c4:	06 c0       	rjmp	.+12     	; 0x29d2 <vfprintf+0x5da>
    29c6:	1c 2d       	mov	r17, r12
    29c8:	d5 14       	cp	r13, r5
    29ca:	78 f4       	brcc	.+30     	; 0x29ea <vfprintf+0x5f2>
    29cc:	15 0d       	add	r17, r5
    29ce:	1d 19       	sub	r17, r13
    29d0:	0c c0       	rjmp	.+24     	; 0x29ea <vfprintf+0x5f2>
    29d2:	d5 14       	cp	r13, r5
    29d4:	50 f4       	brcc	.+20     	; 0x29ea <vfprintf+0x5f2>
    29d6:	b7 01       	movw	r22, r14
    29d8:	80 e2       	ldi	r24, 0x20	; 32
    29da:	90 e0       	ldi	r25, 0x00	; 0
    29dc:	93 d1       	rcall	.+806    	; 0x2d04 <fputc>
    29de:	d3 94       	inc	r13
    29e0:	f8 cf       	rjmp	.-16     	; 0x29d2 <vfprintf+0x5da>
    29e2:	d5 14       	cp	r13, r5
    29e4:	10 f4       	brcc	.+4      	; 0x29ea <vfprintf+0x5f2>
    29e6:	5d 18       	sub	r5, r13
    29e8:	01 c0       	rjmp	.+2      	; 0x29ec <vfprintf+0x5f4>
    29ea:	51 2c       	mov	r5, r1
    29ec:	04 ff       	sbrs	r16, 4
    29ee:	0f c0       	rjmp	.+30     	; 0x2a0e <vfprintf+0x616>
    29f0:	b7 01       	movw	r22, r14
    29f2:	80 e3       	ldi	r24, 0x30	; 48
    29f4:	90 e0       	ldi	r25, 0x00	; 0
    29f6:	86 d1       	rcall	.+780    	; 0x2d04 <fputc>
    29f8:	02 ff       	sbrs	r16, 2
    29fa:	16 c0       	rjmp	.+44     	; 0x2a28 <vfprintf+0x630>
    29fc:	01 fd       	sbrc	r16, 1
    29fe:	03 c0       	rjmp	.+6      	; 0x2a06 <vfprintf+0x60e>
    2a00:	88 e7       	ldi	r24, 0x78	; 120
    2a02:	90 e0       	ldi	r25, 0x00	; 0
    2a04:	02 c0       	rjmp	.+4      	; 0x2a0a <vfprintf+0x612>
    2a06:	88 e5       	ldi	r24, 0x58	; 88
    2a08:	90 e0       	ldi	r25, 0x00	; 0
    2a0a:	b7 01       	movw	r22, r14
    2a0c:	0c c0       	rjmp	.+24     	; 0x2a26 <vfprintf+0x62e>
    2a0e:	80 2f       	mov	r24, r16
    2a10:	86 78       	andi	r24, 0x86	; 134
    2a12:	51 f0       	breq	.+20     	; 0x2a28 <vfprintf+0x630>
    2a14:	01 ff       	sbrs	r16, 1
    2a16:	02 c0       	rjmp	.+4      	; 0x2a1c <vfprintf+0x624>
    2a18:	8b e2       	ldi	r24, 0x2B	; 43
    2a1a:	01 c0       	rjmp	.+2      	; 0x2a1e <vfprintf+0x626>
    2a1c:	80 e2       	ldi	r24, 0x20	; 32
    2a1e:	07 fd       	sbrc	r16, 7
    2a20:	8d e2       	ldi	r24, 0x2D	; 45
    2a22:	b7 01       	movw	r22, r14
    2a24:	90 e0       	ldi	r25, 0x00	; 0
    2a26:	6e d1       	rcall	.+732    	; 0x2d04 <fputc>
    2a28:	c1 16       	cp	r12, r17
    2a2a:	30 f4       	brcc	.+12     	; 0x2a38 <vfprintf+0x640>
    2a2c:	b7 01       	movw	r22, r14
    2a2e:	80 e3       	ldi	r24, 0x30	; 48
    2a30:	90 e0       	ldi	r25, 0x00	; 0
    2a32:	68 d1       	rcall	.+720    	; 0x2d04 <fputc>
    2a34:	11 50       	subi	r17, 0x01	; 1
    2a36:	f8 cf       	rjmp	.-16     	; 0x2a28 <vfprintf+0x630>
    2a38:	ca 94       	dec	r12
    2a3a:	f3 01       	movw	r30, r6
    2a3c:	ec 0d       	add	r30, r12
    2a3e:	f1 1d       	adc	r31, r1
    2a40:	80 81       	ld	r24, Z
    2a42:	b7 01       	movw	r22, r14
    2a44:	90 e0       	ldi	r25, 0x00	; 0
    2a46:	5e d1       	rcall	.+700    	; 0x2d04 <fputc>
    2a48:	c1 10       	cpse	r12, r1
    2a4a:	f6 cf       	rjmp	.-20     	; 0x2a38 <vfprintf+0x640>
    2a4c:	15 c0       	rjmp	.+42     	; 0x2a78 <vfprintf+0x680>
    2a4e:	f4 e0       	ldi	r31, 0x04	; 4
    2a50:	f5 15       	cp	r31, r5
    2a52:	50 f5       	brcc	.+84     	; 0x2aa8 <vfprintf+0x6b0>
    2a54:	84 e0       	ldi	r24, 0x04	; 4
    2a56:	58 1a       	sub	r5, r24
    2a58:	93 fe       	sbrs	r9, 3
    2a5a:	1e c0       	rjmp	.+60     	; 0x2a98 <vfprintf+0x6a0>
    2a5c:	01 11       	cpse	r16, r1
    2a5e:	25 c0       	rjmp	.+74     	; 0x2aaa <vfprintf+0x6b2>
    2a60:	2c 85       	ldd	r18, Y+12	; 0x0c
    2a62:	23 ff       	sbrs	r18, 3
    2a64:	27 c0       	rjmp	.+78     	; 0x2ab4 <vfprintf+0x6bc>
    2a66:	0e e0       	ldi	r16, 0x0E	; 14
    2a68:	11 e0       	ldi	r17, 0x01	; 1
    2a6a:	39 2d       	mov	r19, r9
    2a6c:	30 71       	andi	r19, 0x10	; 16
    2a6e:	93 2e       	mov	r9, r19
    2a70:	f8 01       	movw	r30, r16
    2a72:	84 91       	lpm	r24, Z
    2a74:	81 11       	cpse	r24, r1
    2a76:	21 c0       	rjmp	.+66     	; 0x2aba <vfprintf+0x6c2>
    2a78:	55 20       	and	r5, r5
    2a7a:	09 f4       	brne	.+2      	; 0x2a7e <vfprintf+0x686>
    2a7c:	fc cc       	rjmp	.-1544   	; 0x2476 <vfprintf+0x7e>
    2a7e:	b7 01       	movw	r22, r14
    2a80:	80 e2       	ldi	r24, 0x20	; 32
    2a82:	90 e0       	ldi	r25, 0x00	; 0
    2a84:	3f d1       	rcall	.+638    	; 0x2d04 <fputc>
    2a86:	5a 94       	dec	r5
    2a88:	f7 cf       	rjmp	.-18     	; 0x2a78 <vfprintf+0x680>
    2a8a:	f7 01       	movw	r30, r14
    2a8c:	86 81       	ldd	r24, Z+6	; 0x06
    2a8e:	97 81       	ldd	r25, Z+7	; 0x07
    2a90:	23 c0       	rjmp	.+70     	; 0x2ad8 <vfprintf+0x6e0>
    2a92:	8f ef       	ldi	r24, 0xFF	; 255
    2a94:	9f ef       	ldi	r25, 0xFF	; 255
    2a96:	20 c0       	rjmp	.+64     	; 0x2ad8 <vfprintf+0x6e0>
    2a98:	b7 01       	movw	r22, r14
    2a9a:	80 e2       	ldi	r24, 0x20	; 32
    2a9c:	90 e0       	ldi	r25, 0x00	; 0
    2a9e:	32 d1       	rcall	.+612    	; 0x2d04 <fputc>
    2aa0:	5a 94       	dec	r5
    2aa2:	51 10       	cpse	r5, r1
    2aa4:	f9 cf       	rjmp	.-14     	; 0x2a98 <vfprintf+0x6a0>
    2aa6:	da cf       	rjmp	.-76     	; 0x2a5c <vfprintf+0x664>
    2aa8:	51 2c       	mov	r5, r1
    2aaa:	b7 01       	movw	r22, r14
    2aac:	80 2f       	mov	r24, r16
    2aae:	90 e0       	ldi	r25, 0x00	; 0
    2ab0:	29 d1       	rcall	.+594    	; 0x2d04 <fputc>
    2ab2:	d6 cf       	rjmp	.-84     	; 0x2a60 <vfprintf+0x668>
    2ab4:	02 e1       	ldi	r16, 0x12	; 18
    2ab6:	11 e0       	ldi	r17, 0x01	; 1
    2ab8:	d8 cf       	rjmp	.-80     	; 0x2a6a <vfprintf+0x672>
    2aba:	91 10       	cpse	r9, r1
    2abc:	80 52       	subi	r24, 0x20	; 32
    2abe:	b7 01       	movw	r22, r14
    2ac0:	90 e0       	ldi	r25, 0x00	; 0
    2ac2:	20 d1       	rcall	.+576    	; 0x2d04 <fputc>
    2ac4:	0f 5f       	subi	r16, 0xFF	; 255
    2ac6:	1f 4f       	sbci	r17, 0xFF	; 255
    2ac8:	d3 cf       	rjmp	.-90     	; 0x2a70 <vfprintf+0x678>
    2aca:	23 e0       	ldi	r18, 0x03	; 3
    2acc:	25 15       	cp	r18, r5
    2ace:	10 f4       	brcc	.+4      	; 0x2ad4 <vfprintf+0x6dc>
    2ad0:	83 e0       	ldi	r24, 0x03	; 3
    2ad2:	c1 cf       	rjmp	.-126    	; 0x2a56 <vfprintf+0x65e>
    2ad4:	51 2c       	mov	r5, r1
    2ad6:	c4 cf       	rjmp	.-120    	; 0x2a60 <vfprintf+0x668>
    2ad8:	60 96       	adiw	r28, 0x10	; 16
    2ada:	0f b6       	in	r0, 0x3f	; 63
    2adc:	f8 94       	cli
    2ade:	de bf       	out	0x3e, r29	; 62
    2ae0:	0f be       	out	0x3f, r0	; 63
    2ae2:	cd bf       	out	0x3d, r28	; 61
    2ae4:	df 91       	pop	r29
    2ae6:	cf 91       	pop	r28
    2ae8:	1f 91       	pop	r17
    2aea:	0f 91       	pop	r16
    2aec:	ff 90       	pop	r15
    2aee:	ef 90       	pop	r14
    2af0:	df 90       	pop	r13
    2af2:	cf 90       	pop	r12
    2af4:	bf 90       	pop	r11
    2af6:	af 90       	pop	r10
    2af8:	9f 90       	pop	r9
    2afa:	8f 90       	pop	r8
    2afc:	7f 90       	pop	r7
    2afe:	6f 90       	pop	r6
    2b00:	5f 90       	pop	r5
    2b02:	4f 90       	pop	r4
    2b04:	3f 90       	pop	r3
    2b06:	2f 90       	pop	r2
    2b08:	08 95       	ret

00002b0a <__umulhisi3>:
    2b0a:	a2 9f       	mul	r26, r18
    2b0c:	b0 01       	movw	r22, r0
    2b0e:	b3 9f       	mul	r27, r19
    2b10:	c0 01       	movw	r24, r0
    2b12:	a3 9f       	mul	r26, r19
    2b14:	70 0d       	add	r23, r0
    2b16:	81 1d       	adc	r24, r1
    2b18:	11 24       	eor	r1, r1
    2b1a:	91 1d       	adc	r25, r1
    2b1c:	b2 9f       	mul	r27, r18
    2b1e:	70 0d       	add	r23, r0
    2b20:	81 1d       	adc	r24, r1
    2b22:	11 24       	eor	r1, r1
    2b24:	91 1d       	adc	r25, r1
    2b26:	08 95       	ret

00002b28 <__ftoa_engine>:
    2b28:	28 30       	cpi	r18, 0x08	; 8
    2b2a:	08 f0       	brcs	.+2      	; 0x2b2e <__ftoa_engine+0x6>
    2b2c:	27 e0       	ldi	r18, 0x07	; 7
    2b2e:	33 27       	eor	r19, r19
    2b30:	da 01       	movw	r26, r20
    2b32:	99 0f       	add	r25, r25
    2b34:	31 1d       	adc	r19, r1
    2b36:	87 fd       	sbrc	r24, 7
    2b38:	91 60       	ori	r25, 0x01	; 1
    2b3a:	00 96       	adiw	r24, 0x00	; 0
    2b3c:	61 05       	cpc	r22, r1
    2b3e:	71 05       	cpc	r23, r1
    2b40:	39 f4       	brne	.+14     	; 0x2b50 <__ftoa_engine+0x28>
    2b42:	32 60       	ori	r19, 0x02	; 2
    2b44:	2e 5f       	subi	r18, 0xFE	; 254
    2b46:	3d 93       	st	X+, r19
    2b48:	30 e3       	ldi	r19, 0x30	; 48
    2b4a:	2a 95       	dec	r18
    2b4c:	e1 f7       	brne	.-8      	; 0x2b46 <__ftoa_engine+0x1e>
    2b4e:	08 95       	ret
    2b50:	9f 3f       	cpi	r25, 0xFF	; 255
    2b52:	30 f0       	brcs	.+12     	; 0x2b60 <__ftoa_engine+0x38>
    2b54:	80 38       	cpi	r24, 0x80	; 128
    2b56:	71 05       	cpc	r23, r1
    2b58:	61 05       	cpc	r22, r1
    2b5a:	09 f0       	breq	.+2      	; 0x2b5e <__ftoa_engine+0x36>
    2b5c:	3c 5f       	subi	r19, 0xFC	; 252
    2b5e:	3c 5f       	subi	r19, 0xFC	; 252
    2b60:	3d 93       	st	X+, r19
    2b62:	91 30       	cpi	r25, 0x01	; 1
    2b64:	08 f0       	brcs	.+2      	; 0x2b68 <__ftoa_engine+0x40>
    2b66:	80 68       	ori	r24, 0x80	; 128
    2b68:	91 1d       	adc	r25, r1
    2b6a:	df 93       	push	r29
    2b6c:	cf 93       	push	r28
    2b6e:	1f 93       	push	r17
    2b70:	0f 93       	push	r16
    2b72:	ff 92       	push	r15
    2b74:	ef 92       	push	r14
    2b76:	19 2f       	mov	r17, r25
    2b78:	98 7f       	andi	r25, 0xF8	; 248
    2b7a:	96 95       	lsr	r25
    2b7c:	e9 2f       	mov	r30, r25
    2b7e:	96 95       	lsr	r25
    2b80:	96 95       	lsr	r25
    2b82:	e9 0f       	add	r30, r25
    2b84:	ff 27       	eor	r31, r31
    2b86:	e0 59       	subi	r30, 0x90	; 144
    2b88:	fe 4f       	sbci	r31, 0xFE	; 254
    2b8a:	99 27       	eor	r25, r25
    2b8c:	33 27       	eor	r19, r19
    2b8e:	ee 24       	eor	r14, r14
    2b90:	ff 24       	eor	r15, r15
    2b92:	a7 01       	movw	r20, r14
    2b94:	e7 01       	movw	r28, r14
    2b96:	05 90       	lpm	r0, Z+
    2b98:	08 94       	sec
    2b9a:	07 94       	ror	r0
    2b9c:	28 f4       	brcc	.+10     	; 0x2ba8 <__ftoa_engine+0x80>
    2b9e:	36 0f       	add	r19, r22
    2ba0:	e7 1e       	adc	r14, r23
    2ba2:	f8 1e       	adc	r15, r24
    2ba4:	49 1f       	adc	r20, r25
    2ba6:	51 1d       	adc	r21, r1
    2ba8:	66 0f       	add	r22, r22
    2baa:	77 1f       	adc	r23, r23
    2bac:	88 1f       	adc	r24, r24
    2bae:	99 1f       	adc	r25, r25
    2bb0:	06 94       	lsr	r0
    2bb2:	a1 f7       	brne	.-24     	; 0x2b9c <__ftoa_engine+0x74>
    2bb4:	05 90       	lpm	r0, Z+
    2bb6:	07 94       	ror	r0
    2bb8:	28 f4       	brcc	.+10     	; 0x2bc4 <__ftoa_engine+0x9c>
    2bba:	e7 0e       	add	r14, r23
    2bbc:	f8 1e       	adc	r15, r24
    2bbe:	49 1f       	adc	r20, r25
    2bc0:	56 1f       	adc	r21, r22
    2bc2:	c1 1d       	adc	r28, r1
    2bc4:	77 0f       	add	r23, r23
    2bc6:	88 1f       	adc	r24, r24
    2bc8:	99 1f       	adc	r25, r25
    2bca:	66 1f       	adc	r22, r22
    2bcc:	06 94       	lsr	r0
    2bce:	a1 f7       	brne	.-24     	; 0x2bb8 <__ftoa_engine+0x90>
    2bd0:	05 90       	lpm	r0, Z+
    2bd2:	07 94       	ror	r0
    2bd4:	28 f4       	brcc	.+10     	; 0x2be0 <__ftoa_engine+0xb8>
    2bd6:	f8 0e       	add	r15, r24
    2bd8:	49 1f       	adc	r20, r25
    2bda:	56 1f       	adc	r21, r22
    2bdc:	c7 1f       	adc	r28, r23
    2bde:	d1 1d       	adc	r29, r1
    2be0:	88 0f       	add	r24, r24
    2be2:	99 1f       	adc	r25, r25
    2be4:	66 1f       	adc	r22, r22
    2be6:	77 1f       	adc	r23, r23
    2be8:	06 94       	lsr	r0
    2bea:	a1 f7       	brne	.-24     	; 0x2bd4 <__ftoa_engine+0xac>
    2bec:	05 90       	lpm	r0, Z+
    2bee:	07 94       	ror	r0
    2bf0:	20 f4       	brcc	.+8      	; 0x2bfa <__ftoa_engine+0xd2>
    2bf2:	49 0f       	add	r20, r25
    2bf4:	56 1f       	adc	r21, r22
    2bf6:	c7 1f       	adc	r28, r23
    2bf8:	d8 1f       	adc	r29, r24
    2bfa:	99 0f       	add	r25, r25
    2bfc:	66 1f       	adc	r22, r22
    2bfe:	77 1f       	adc	r23, r23
    2c00:	88 1f       	adc	r24, r24
    2c02:	06 94       	lsr	r0
    2c04:	a9 f7       	brne	.-22     	; 0x2bf0 <__ftoa_engine+0xc8>
    2c06:	84 91       	lpm	r24, Z
    2c08:	10 95       	com	r17
    2c0a:	17 70       	andi	r17, 0x07	; 7
    2c0c:	41 f0       	breq	.+16     	; 0x2c1e <__ftoa_engine+0xf6>
    2c0e:	d6 95       	lsr	r29
    2c10:	c7 95       	ror	r28
    2c12:	57 95       	ror	r21
    2c14:	47 95       	ror	r20
    2c16:	f7 94       	ror	r15
    2c18:	e7 94       	ror	r14
    2c1a:	1a 95       	dec	r17
    2c1c:	c1 f7       	brne	.-16     	; 0x2c0e <__ftoa_engine+0xe6>
    2c1e:	e6 e1       	ldi	r30, 0x16	; 22
    2c20:	f1 e0       	ldi	r31, 0x01	; 1
    2c22:	68 94       	set
    2c24:	15 90       	lpm	r1, Z+
    2c26:	15 91       	lpm	r17, Z+
    2c28:	35 91       	lpm	r19, Z+
    2c2a:	65 91       	lpm	r22, Z+
    2c2c:	95 91       	lpm	r25, Z+
    2c2e:	05 90       	lpm	r0, Z+
    2c30:	7f e2       	ldi	r23, 0x2F	; 47
    2c32:	73 95       	inc	r23
    2c34:	e1 18       	sub	r14, r1
    2c36:	f1 0a       	sbc	r15, r17
    2c38:	43 0b       	sbc	r20, r19
    2c3a:	56 0b       	sbc	r21, r22
    2c3c:	c9 0b       	sbc	r28, r25
    2c3e:	d0 09       	sbc	r29, r0
    2c40:	c0 f7       	brcc	.-16     	; 0x2c32 <__ftoa_engine+0x10a>
    2c42:	e1 0c       	add	r14, r1
    2c44:	f1 1e       	adc	r15, r17
    2c46:	43 1f       	adc	r20, r19
    2c48:	56 1f       	adc	r21, r22
    2c4a:	c9 1f       	adc	r28, r25
    2c4c:	d0 1d       	adc	r29, r0
    2c4e:	7e f4       	brtc	.+30     	; 0x2c6e <__ftoa_engine+0x146>
    2c50:	70 33       	cpi	r23, 0x30	; 48
    2c52:	11 f4       	brne	.+4      	; 0x2c58 <__ftoa_engine+0x130>
    2c54:	8a 95       	dec	r24
    2c56:	e6 cf       	rjmp	.-52     	; 0x2c24 <__ftoa_engine+0xfc>
    2c58:	e8 94       	clt
    2c5a:	01 50       	subi	r16, 0x01	; 1
    2c5c:	30 f0       	brcs	.+12     	; 0x2c6a <__ftoa_engine+0x142>
    2c5e:	08 0f       	add	r16, r24
    2c60:	0a f4       	brpl	.+2      	; 0x2c64 <__ftoa_engine+0x13c>
    2c62:	00 27       	eor	r16, r16
    2c64:	02 17       	cp	r16, r18
    2c66:	08 f4       	brcc	.+2      	; 0x2c6a <__ftoa_engine+0x142>
    2c68:	20 2f       	mov	r18, r16
    2c6a:	23 95       	inc	r18
    2c6c:	02 2f       	mov	r16, r18
    2c6e:	7a 33       	cpi	r23, 0x3A	; 58
    2c70:	28 f0       	brcs	.+10     	; 0x2c7c <__ftoa_engine+0x154>
    2c72:	79 e3       	ldi	r23, 0x39	; 57
    2c74:	7d 93       	st	X+, r23
    2c76:	2a 95       	dec	r18
    2c78:	e9 f7       	brne	.-6      	; 0x2c74 <__ftoa_engine+0x14c>
    2c7a:	10 c0       	rjmp	.+32     	; 0x2c9c <__ftoa_engine+0x174>
    2c7c:	7d 93       	st	X+, r23
    2c7e:	2a 95       	dec	r18
    2c80:	89 f6       	brne	.-94     	; 0x2c24 <__ftoa_engine+0xfc>
    2c82:	06 94       	lsr	r0
    2c84:	97 95       	ror	r25
    2c86:	67 95       	ror	r22
    2c88:	37 95       	ror	r19
    2c8a:	17 95       	ror	r17
    2c8c:	17 94       	ror	r1
    2c8e:	e1 18       	sub	r14, r1
    2c90:	f1 0a       	sbc	r15, r17
    2c92:	43 0b       	sbc	r20, r19
    2c94:	56 0b       	sbc	r21, r22
    2c96:	c9 0b       	sbc	r28, r25
    2c98:	d0 09       	sbc	r29, r0
    2c9a:	98 f0       	brcs	.+38     	; 0x2cc2 <__ftoa_engine+0x19a>
    2c9c:	23 95       	inc	r18
    2c9e:	7e 91       	ld	r23, -X
    2ca0:	73 95       	inc	r23
    2ca2:	7a 33       	cpi	r23, 0x3A	; 58
    2ca4:	08 f0       	brcs	.+2      	; 0x2ca8 <__ftoa_engine+0x180>
    2ca6:	70 e3       	ldi	r23, 0x30	; 48
    2ca8:	7c 93       	st	X, r23
    2caa:	20 13       	cpse	r18, r16
    2cac:	b8 f7       	brcc	.-18     	; 0x2c9c <__ftoa_engine+0x174>
    2cae:	7e 91       	ld	r23, -X
    2cb0:	70 61       	ori	r23, 0x10	; 16
    2cb2:	7d 93       	st	X+, r23
    2cb4:	30 f0       	brcs	.+12     	; 0x2cc2 <__ftoa_engine+0x19a>
    2cb6:	83 95       	inc	r24
    2cb8:	71 e3       	ldi	r23, 0x31	; 49
    2cba:	7d 93       	st	X+, r23
    2cbc:	70 e3       	ldi	r23, 0x30	; 48
    2cbe:	2a 95       	dec	r18
    2cc0:	e1 f7       	brne	.-8      	; 0x2cba <__ftoa_engine+0x192>
    2cc2:	11 24       	eor	r1, r1
    2cc4:	ef 90       	pop	r14
    2cc6:	ff 90       	pop	r15
    2cc8:	0f 91       	pop	r16
    2cca:	1f 91       	pop	r17
    2ccc:	cf 91       	pop	r28
    2cce:	df 91       	pop	r29
    2cd0:	99 27       	eor	r25, r25
    2cd2:	87 fd       	sbrc	r24, 7
    2cd4:	90 95       	com	r25
    2cd6:	08 95       	ret

00002cd8 <strnlen_P>:
    2cd8:	fc 01       	movw	r30, r24
    2cda:	05 90       	lpm	r0, Z+
    2cdc:	61 50       	subi	r22, 0x01	; 1
    2cde:	70 40       	sbci	r23, 0x00	; 0
    2ce0:	01 10       	cpse	r0, r1
    2ce2:	d8 f7       	brcc	.-10     	; 0x2cda <strnlen_P+0x2>
    2ce4:	80 95       	com	r24
    2ce6:	90 95       	com	r25
    2ce8:	8e 0f       	add	r24, r30
    2cea:	9f 1f       	adc	r25, r31
    2cec:	08 95       	ret

00002cee <strnlen>:
    2cee:	fc 01       	movw	r30, r24
    2cf0:	61 50       	subi	r22, 0x01	; 1
    2cf2:	70 40       	sbci	r23, 0x00	; 0
    2cf4:	01 90       	ld	r0, Z+
    2cf6:	01 10       	cpse	r0, r1
    2cf8:	d8 f7       	brcc	.-10     	; 0x2cf0 <strnlen+0x2>
    2cfa:	80 95       	com	r24
    2cfc:	90 95       	com	r25
    2cfe:	8e 0f       	add	r24, r30
    2d00:	9f 1f       	adc	r25, r31
    2d02:	08 95       	ret

00002d04 <fputc>:
    2d04:	0f 93       	push	r16
    2d06:	1f 93       	push	r17
    2d08:	cf 93       	push	r28
    2d0a:	df 93       	push	r29
    2d0c:	fb 01       	movw	r30, r22
    2d0e:	23 81       	ldd	r18, Z+3	; 0x03
    2d10:	21 fd       	sbrc	r18, 1
    2d12:	03 c0       	rjmp	.+6      	; 0x2d1a <fputc+0x16>
    2d14:	8f ef       	ldi	r24, 0xFF	; 255
    2d16:	9f ef       	ldi	r25, 0xFF	; 255
    2d18:	2c c0       	rjmp	.+88     	; 0x2d72 <fputc+0x6e>
    2d1a:	22 ff       	sbrs	r18, 2
    2d1c:	16 c0       	rjmp	.+44     	; 0x2d4a <fputc+0x46>
    2d1e:	46 81       	ldd	r20, Z+6	; 0x06
    2d20:	57 81       	ldd	r21, Z+7	; 0x07
    2d22:	24 81       	ldd	r18, Z+4	; 0x04
    2d24:	35 81       	ldd	r19, Z+5	; 0x05
    2d26:	42 17       	cp	r20, r18
    2d28:	53 07       	cpc	r21, r19
    2d2a:	44 f4       	brge	.+16     	; 0x2d3c <fputc+0x38>
    2d2c:	a0 81       	ld	r26, Z
    2d2e:	b1 81       	ldd	r27, Z+1	; 0x01
    2d30:	9d 01       	movw	r18, r26
    2d32:	2f 5f       	subi	r18, 0xFF	; 255
    2d34:	3f 4f       	sbci	r19, 0xFF	; 255
    2d36:	31 83       	std	Z+1, r19	; 0x01
    2d38:	20 83       	st	Z, r18
    2d3a:	8c 93       	st	X, r24
    2d3c:	26 81       	ldd	r18, Z+6	; 0x06
    2d3e:	37 81       	ldd	r19, Z+7	; 0x07
    2d40:	2f 5f       	subi	r18, 0xFF	; 255
    2d42:	3f 4f       	sbci	r19, 0xFF	; 255
    2d44:	37 83       	std	Z+7, r19	; 0x07
    2d46:	26 83       	std	Z+6, r18	; 0x06
    2d48:	14 c0       	rjmp	.+40     	; 0x2d72 <fputc+0x6e>
    2d4a:	8b 01       	movw	r16, r22
    2d4c:	ec 01       	movw	r28, r24
    2d4e:	fb 01       	movw	r30, r22
    2d50:	00 84       	ldd	r0, Z+8	; 0x08
    2d52:	f1 85       	ldd	r31, Z+9	; 0x09
    2d54:	e0 2d       	mov	r30, r0
    2d56:	09 95       	icall
    2d58:	89 2b       	or	r24, r25
    2d5a:	e1 f6       	brne	.-72     	; 0x2d14 <fputc+0x10>
    2d5c:	d8 01       	movw	r26, r16
    2d5e:	16 96       	adiw	r26, 0x06	; 6
    2d60:	8d 91       	ld	r24, X+
    2d62:	9c 91       	ld	r25, X
    2d64:	17 97       	sbiw	r26, 0x07	; 7
    2d66:	01 96       	adiw	r24, 0x01	; 1
    2d68:	17 96       	adiw	r26, 0x07	; 7
    2d6a:	9c 93       	st	X, r25
    2d6c:	8e 93       	st	-X, r24
    2d6e:	16 97       	sbiw	r26, 0x06	; 6
    2d70:	ce 01       	movw	r24, r28
    2d72:	df 91       	pop	r29
    2d74:	cf 91       	pop	r28
    2d76:	1f 91       	pop	r17
    2d78:	0f 91       	pop	r16
    2d7a:	08 95       	ret

00002d7c <__ultoa_invert>:
    2d7c:	fa 01       	movw	r30, r20
    2d7e:	aa 27       	eor	r26, r26
    2d80:	28 30       	cpi	r18, 0x08	; 8
    2d82:	51 f1       	breq	.+84     	; 0x2dd8 <__ultoa_invert+0x5c>
    2d84:	20 31       	cpi	r18, 0x10	; 16
    2d86:	81 f1       	breq	.+96     	; 0x2de8 <__ultoa_invert+0x6c>
    2d88:	e8 94       	clt
    2d8a:	6f 93       	push	r22
    2d8c:	6e 7f       	andi	r22, 0xFE	; 254
    2d8e:	6e 5f       	subi	r22, 0xFE	; 254
    2d90:	7f 4f       	sbci	r23, 0xFF	; 255
    2d92:	8f 4f       	sbci	r24, 0xFF	; 255
    2d94:	9f 4f       	sbci	r25, 0xFF	; 255
    2d96:	af 4f       	sbci	r26, 0xFF	; 255
    2d98:	b1 e0       	ldi	r27, 0x01	; 1
    2d9a:	3e d0       	rcall	.+124    	; 0x2e18 <__ultoa_invert+0x9c>
    2d9c:	b4 e0       	ldi	r27, 0x04	; 4
    2d9e:	3c d0       	rcall	.+120    	; 0x2e18 <__ultoa_invert+0x9c>
    2da0:	67 0f       	add	r22, r23
    2da2:	78 1f       	adc	r23, r24
    2da4:	89 1f       	adc	r24, r25
    2da6:	9a 1f       	adc	r25, r26
    2da8:	a1 1d       	adc	r26, r1
    2daa:	68 0f       	add	r22, r24
    2dac:	79 1f       	adc	r23, r25
    2dae:	8a 1f       	adc	r24, r26
    2db0:	91 1d       	adc	r25, r1
    2db2:	a1 1d       	adc	r26, r1
    2db4:	6a 0f       	add	r22, r26
    2db6:	71 1d       	adc	r23, r1
    2db8:	81 1d       	adc	r24, r1
    2dba:	91 1d       	adc	r25, r1
    2dbc:	a1 1d       	adc	r26, r1
    2dbe:	20 d0       	rcall	.+64     	; 0x2e00 <__ultoa_invert+0x84>
    2dc0:	09 f4       	brne	.+2      	; 0x2dc4 <__ultoa_invert+0x48>
    2dc2:	68 94       	set
    2dc4:	3f 91       	pop	r19
    2dc6:	2a e0       	ldi	r18, 0x0A	; 10
    2dc8:	26 9f       	mul	r18, r22
    2dca:	11 24       	eor	r1, r1
    2dcc:	30 19       	sub	r19, r0
    2dce:	30 5d       	subi	r19, 0xD0	; 208
    2dd0:	31 93       	st	Z+, r19
    2dd2:	de f6       	brtc	.-74     	; 0x2d8a <__ultoa_invert+0xe>
    2dd4:	cf 01       	movw	r24, r30
    2dd6:	08 95       	ret
    2dd8:	46 2f       	mov	r20, r22
    2dda:	47 70       	andi	r20, 0x07	; 7
    2ddc:	40 5d       	subi	r20, 0xD0	; 208
    2dde:	41 93       	st	Z+, r20
    2de0:	b3 e0       	ldi	r27, 0x03	; 3
    2de2:	0f d0       	rcall	.+30     	; 0x2e02 <__ultoa_invert+0x86>
    2de4:	c9 f7       	brne	.-14     	; 0x2dd8 <__ultoa_invert+0x5c>
    2de6:	f6 cf       	rjmp	.-20     	; 0x2dd4 <__ultoa_invert+0x58>
    2de8:	46 2f       	mov	r20, r22
    2dea:	4f 70       	andi	r20, 0x0F	; 15
    2dec:	40 5d       	subi	r20, 0xD0	; 208
    2dee:	4a 33       	cpi	r20, 0x3A	; 58
    2df0:	18 f0       	brcs	.+6      	; 0x2df8 <__ultoa_invert+0x7c>
    2df2:	49 5d       	subi	r20, 0xD9	; 217
    2df4:	31 fd       	sbrc	r19, 1
    2df6:	40 52       	subi	r20, 0x20	; 32
    2df8:	41 93       	st	Z+, r20
    2dfa:	02 d0       	rcall	.+4      	; 0x2e00 <__ultoa_invert+0x84>
    2dfc:	a9 f7       	brne	.-22     	; 0x2de8 <__ultoa_invert+0x6c>
    2dfe:	ea cf       	rjmp	.-44     	; 0x2dd4 <__ultoa_invert+0x58>
    2e00:	b4 e0       	ldi	r27, 0x04	; 4
    2e02:	a6 95       	lsr	r26
    2e04:	97 95       	ror	r25
    2e06:	87 95       	ror	r24
    2e08:	77 95       	ror	r23
    2e0a:	67 95       	ror	r22
    2e0c:	ba 95       	dec	r27
    2e0e:	c9 f7       	brne	.-14     	; 0x2e02 <__ultoa_invert+0x86>
    2e10:	00 97       	sbiw	r24, 0x00	; 0
    2e12:	61 05       	cpc	r22, r1
    2e14:	71 05       	cpc	r23, r1
    2e16:	08 95       	ret
    2e18:	9b 01       	movw	r18, r22
    2e1a:	ac 01       	movw	r20, r24
    2e1c:	0a 2e       	mov	r0, r26
    2e1e:	06 94       	lsr	r0
    2e20:	57 95       	ror	r21
    2e22:	47 95       	ror	r20
    2e24:	37 95       	ror	r19
    2e26:	27 95       	ror	r18
    2e28:	ba 95       	dec	r27
    2e2a:	c9 f7       	brne	.-14     	; 0x2e1e <__ultoa_invert+0xa2>
    2e2c:	62 0f       	add	r22, r18
    2e2e:	73 1f       	adc	r23, r19
    2e30:	84 1f       	adc	r24, r20
    2e32:	95 1f       	adc	r25, r21
    2e34:	a0 1d       	adc	r26, r0
    2e36:	08 95       	ret

00002e38 <_exit>:
    2e38:	f8 94       	cli

00002e3a <__stop_program>:
    2e3a:	ff cf       	rjmp	.-2      	; 0x2e3a <__stop_program>
